

Microchip MPLAB XC8 Assembler V2.32 build 20210201212658 
                                                                                               Sun Dec 26 10:19:06 2021

Microchip MPLAB XC8 C Compiler v2.32 (Free license) build 20210201212658 Og1 
     1                           	processor	16F877A
     2                           	pagewidth 120
     3                           	opt	flic
     4                           	psect	idataCOMMON,global,class=CODE,delta=2,noexec
     5                           	psect	strings,global,class=STRING,delta=2,noexec
     6                           	psect	stringtext,global,reloc=256,class=STRCODE,delta=2,noexec
     7                           	psect	cinit,global,class=CODE,merge=1,delta=2
     8                           	psect	bssCOMMON,global,class=COMMON,space=1,delta=1,noexec
     9                           	psect	dataCOMMON,global,class=COMMON,space=1,delta=1,noexec
    10                           	psect	bssBANK0,global,class=BANK0,space=1,delta=1,noexec
    11                           	psect	clrtext,global,class=CODE,delta=2
    12                           	psect	cstackCOMMON,global,class=COMMON,space=1,delta=1,noexec
    13                           	psect	cstackBANK0,global,class=BANK0,space=1,delta=1,noexec
    14                           	psect	maintext,global,class=CODE,split=1,delta=2
    15                           	psect	text1,local,class=CODE,merge=1,delta=2
    16                           	psect	text2,local,class=CODE,merge=1,delta=2
    17                           	psect	text3,local,class=CODE,merge=1,delta=2
    18                           	psect	text4,local,class=CODE,merge=1,delta=2
    19                           	psect	text5,local,class=CODE,merge=1,delta=2
    20                           	psect	text6,local,class=CODE,merge=1,delta=2,group=1
    21                           	psect	text7,local,class=CODE,merge=1,delta=2,group=1
    22                           	psect	text8,local,class=CODE,merge=1,delta=2,group=1
    23                           	psect	text9,local,class=CODE,merge=1,delta=2
    24                           	psect	text10,local,class=CODE,merge=1,delta=2
    25                           	psect	text11,local,class=CODE,merge=1,delta=2
    26                           	psect	text12,local,class=CODE,merge=1,delta=2
    27                           	psect	text13,local,class=CODE,merge=1,delta=2
    28                           	psect	text14,local,class=CODE,merge=1,delta=2
    29                           	psect	text15,local,class=CODE,merge=1,delta=2
    30                           	psect	text16,local,class=CODE,merge=1,delta=2
    31                           	psect	text17,local,class=CODE,merge=1,delta=2
    32                           	psect	text18,local,class=CODE,merge=1,delta=2
    33                           	psect	text19,local,class=CODE,merge=1,delta=2
    34                           	psect	text20,local,class=CODE,merge=1,delta=2
    35                           	psect	text21,local,class=CODE,merge=1,delta=2
    36                           	psect	intentry,global,class=CODE,delta=2
    37                           	psect	config,global,abs,ovrld,class=CONFIG,space=4,delta=2,noexec
    38                           	dabs	1,0x7E,2
    39  0000                     
    40                           ; Version 2.20
    41                           ; Generated 12/02/2020 GMT
    42                           ; 
    43                           ; Copyright © 2020, Microchip Technology Inc. and its subsidiaries ("Microchip")
    44                           ; All rights reserved.
    45                           ; 
    46                           ; This software is developed by Microchip Technology Inc. and its subsidiaries ("Microch
      +                          ip").
    47                           ; 
    48                           ; Redistribution and use in source and binary forms, with or without modification, are
    49                           ; permitted provided that the following conditions are met:
    50                           ; 
    51                           ;     1. Redistributions of source code must retain the above copyright notice, this lis
      +                          t of
    52                           ;        conditions and the following disclaimer.
    53                           ; 
    54                           ;     2. Redistributions in binary form must reproduce the above copyright notice, this 
      +                          list
    55                           ;        of conditions and the following disclaimer in the documentation and/or other
    56                           ;        materials provided with the distribution.
    57                           ; 
    58                           ;     3. Microchip's name may not be used to endorse or promote products derived from th
      +                          is
    59                           ;        software without specific prior written permission.
    60                           ; 
    61                           ; THIS SOFTWARE IS PROVIDED BY MICROCHIP "AS IS" AND ANY EXPRESS OR IMPLIED WARRANTIES,
    62                           ; INCLUDING, BUT NOT LIMITED TO, THE IMPLIED WARRANTIES OF MERCHANTABILITY AND FITNESS F
      +                          OR
    63                           ; PURPOSE ARE DISCLAIMED.  IN NO EVENT SHALL MICROCHIP BE LIABLE FOR ANY DIRECT, INDIREC
      +                          T,
    64                           ; INCIDENTAL, SPECIAL, EXEMPLARY, OR CONSEQUENTIAL DAMAGES (INCLUDING BUT NOT LIMITED TO
    65                           ; PROCUREMENT OF SUBSTITUTE GOODS OR SERVICES; LOSS OF USE, DATA OR PROFITS; OR BUSINESS
    66                           ; INTERRUPTION) HOWSOEVER CAUSED AND ON ANY THEORY OF LIABILITY, WHETHER IN CONTRACT, ST
      +                          RICT
    67                           ; LIABILITY, OR TORT (INCLUDING NEGLIGENCE OR OTHERWISE) ARISING IN ANY WAY OUT OF THE U
      +                          SE OF
    68                           ; THIS SOFTWARE, EVEN IF ADVISED OF THE POSSIBILITY OF SUCH DAMAGE.
    69                           ; 
    70                           ; 
    71                           ; Code-generator required, PIC16F877A Definitions
    72                           ; 
    73                           ; SFR Addresses
    74  0000                     	;# 
    75  0001                     	;# 
    76  0002                     	;# 
    77  0003                     	;# 
    78  0004                     	;# 
    79  0005                     	;# 
    80  0006                     	;# 
    81  0007                     	;# 
    82  0008                     	;# 
    83  0009                     	;# 
    84  000A                     	;# 
    85  000B                     	;# 
    86  000C                     	;# 
    87  000D                     	;# 
    88  000E                     	;# 
    89  000E                     	;# 
    90  000F                     	;# 
    91  0010                     	;# 
    92  0011                     	;# 
    93  0012                     	;# 
    94  0013                     	;# 
    95  0014                     	;# 
    96  0015                     	;# 
    97  0015                     	;# 
    98  0016                     	;# 
    99  0017                     	;# 
   100  0018                     	;# 
   101  0019                     	;# 
   102  001A                     	;# 
   103  001B                     	;# 
   104  001B                     	;# 
   105  001C                     	;# 
   106  001D                     	;# 
   107  001E                     	;# 
   108  001F                     	;# 
   109  0081                     	;# 
   110  0085                     	;# 
   111  0086                     	;# 
   112  0087                     	;# 
   113  0088                     	;# 
   114  0089                     	;# 
   115  008C                     	;# 
   116  008D                     	;# 
   117  008E                     	;# 
   118  0091                     	;# 
   119  0092                     	;# 
   120  0093                     	;# 
   121  0094                     	;# 
   122  0098                     	;# 
   123  0099                     	;# 
   124  009C                     	;# 
   125  009D                     	;# 
   126  009E                     	;# 
   127  009F                     	;# 
   128  010C                     	;# 
   129  010D                     	;# 
   130  010E                     	;# 
   131  010F                     	;# 
   132  018C                     	;# 
   133  018D                     	;# 
   134  0000                     	;# 
   135  0001                     	;# 
   136  0002                     	;# 
   137  0003                     	;# 
   138  0004                     	;# 
   139  0005                     	;# 
   140  0006                     	;# 
   141  0007                     	;# 
   142  0008                     	;# 
   143  0009                     	;# 
   144  000A                     	;# 
   145  000B                     	;# 
   146  000C                     	;# 
   147  000D                     	;# 
   148  000E                     	;# 
   149  000E                     	;# 
   150  000F                     	;# 
   151  0010                     	;# 
   152  0011                     	;# 
   153  0012                     	;# 
   154  0013                     	;# 
   155  0014                     	;# 
   156  0015                     	;# 
   157  0015                     	;# 
   158  0016                     	;# 
   159  0017                     	;# 
   160  0018                     	;# 
   161  0019                     	;# 
   162  001A                     	;# 
   163  001B                     	;# 
   164  001B                     	;# 
   165  001C                     	;# 
   166  001D                     	;# 
   167  001E                     	;# 
   168  001F                     	;# 
   169  0081                     	;# 
   170  0085                     	;# 
   171  0086                     	;# 
   172  0087                     	;# 
   173  0088                     	;# 
   174  0089                     	;# 
   175  008C                     	;# 
   176  008D                     	;# 
   177  008E                     	;# 
   178  0091                     	;# 
   179  0092                     	;# 
   180  0093                     	;# 
   181  0094                     	;# 
   182  0098                     	;# 
   183  0099                     	;# 
   184  009C                     	;# 
   185  009D                     	;# 
   186  009E                     	;# 
   187  009F                     	;# 
   188  010C                     	;# 
   189  010D                     	;# 
   190  010E                     	;# 
   191  010F                     	;# 
   192  018C                     	;# 
   193  018D                     	;# 
   194  0000                     	;# 
   195  0001                     	;# 
   196  0002                     	;# 
   197  0003                     	;# 
   198  0004                     	;# 
   199  0005                     	;# 
   200  0006                     	;# 
   201  0007                     	;# 
   202  0008                     	;# 
   203  0009                     	;# 
   204  000A                     	;# 
   205  000B                     	;# 
   206  000C                     	;# 
   207  000D                     	;# 
   208  000E                     	;# 
   209  000E                     	;# 
   210  000F                     	;# 
   211  0010                     	;# 
   212  0011                     	;# 
   213  0012                     	;# 
   214  0013                     	;# 
   215  0014                     	;# 
   216  0015                     	;# 
   217  0015                     	;# 
   218  0016                     	;# 
   219  0017                     	;# 
   220  0018                     	;# 
   221  0019                     	;# 
   222  001A                     	;# 
   223  001B                     	;# 
   224  001B                     	;# 
   225  001C                     	;# 
   226  001D                     	;# 
   227  001E                     	;# 
   228  001F                     	;# 
   229  0081                     	;# 
   230  0085                     	;# 
   231  0086                     	;# 
   232  0087                     	;# 
   233  0088                     	;# 
   234  0089                     	;# 
   235  008C                     	;# 
   236  008D                     	;# 
   237  008E                     	;# 
   238  0091                     	;# 
   239  0092                     	;# 
   240  0093                     	;# 
   241  0094                     	;# 
   242  0098                     	;# 
   243  0099                     	;# 
   244  009C                     	;# 
   245  009D                     	;# 
   246  009E                     	;# 
   247  009F                     	;# 
   248  010C                     	;# 
   249  010D                     	;# 
   250  010E                     	;# 
   251  010F                     	;# 
   252  018C                     	;# 
   253  018D                     	;# 
   254  0000                     	;# 
   255  0001                     	;# 
   256  0002                     	;# 
   257  0003                     	;# 
   258  0004                     	;# 
   259  0005                     	;# 
   260  0006                     	;# 
   261  0007                     	;# 
   262  0008                     	;# 
   263  0009                     	;# 
   264  000A                     	;# 
   265  000B                     	;# 
   266  000C                     	;# 
   267  000D                     	;# 
   268  000E                     	;# 
   269  000E                     	;# 
   270  000F                     	;# 
   271  0010                     	;# 
   272  0011                     	;# 
   273  0012                     	;# 
   274  0013                     	;# 
   275  0014                     	;# 
   276  0015                     	;# 
   277  0015                     	;# 
   278  0016                     	;# 
   279  0017                     	;# 
   280  0018                     	;# 
   281  0019                     	;# 
   282  001A                     	;# 
   283  001B                     	;# 
   284  001B                     	;# 
   285  001C                     	;# 
   286  001D                     	;# 
   287  001E                     	;# 
   288  001F                     	;# 
   289  0081                     	;# 
   290  0085                     	;# 
   291  0086                     	;# 
   292  0087                     	;# 
   293  0088                     	;# 
   294  0089                     	;# 
   295  008C                     	;# 
   296  008D                     	;# 
   297  008E                     	;# 
   298  0091                     	;# 
   299  0092                     	;# 
   300  0093                     	;# 
   301  0094                     	;# 
   302  0098                     	;# 
   303  0099                     	;# 
   304  009C                     	;# 
   305  009D                     	;# 
   306  009E                     	;# 
   307  009F                     	;# 
   308  010C                     	;# 
   309  010D                     	;# 
   310  010E                     	;# 
   311  010F                     	;# 
   312  018C                     	;# 
   313  018D                     	;# 
   314  0000                     	;# 
   315  0001                     	;# 
   316  0002                     	;# 
   317  0003                     	;# 
   318  0004                     	;# 
   319  0005                     	;# 
   320  0006                     	;# 
   321  0007                     	;# 
   322  0008                     	;# 
   323  0009                     	;# 
   324  000A                     	;# 
   325  000B                     	;# 
   326  000C                     	;# 
   327  000D                     	;# 
   328  000E                     	;# 
   329  000E                     	;# 
   330  000F                     	;# 
   331  0010                     	;# 
   332  0011                     	;# 
   333  0012                     	;# 
   334  0013                     	;# 
   335  0014                     	;# 
   336  0015                     	;# 
   337  0015                     	;# 
   338  0016                     	;# 
   339  0017                     	;# 
   340  0018                     	;# 
   341  0019                     	;# 
   342  001A                     	;# 
   343  001B                     	;# 
   344  001B                     	;# 
   345  001C                     	;# 
   346  001D                     	;# 
   347  001E                     	;# 
   348  001F                     	;# 
   349  0081                     	;# 
   350  0085                     	;# 
   351  0086                     	;# 
   352  0087                     	;# 
   353  0088                     	;# 
   354  0089                     	;# 
   355  008C                     	;# 
   356  008D                     	;# 
   357  008E                     	;# 
   358  0091                     	;# 
   359  0092                     	;# 
   360  0093                     	;# 
   361  0094                     	;# 
   362  0098                     	;# 
   363  0099                     	;# 
   364  009C                     	;# 
   365  009D                     	;# 
   366  009E                     	;# 
   367  009F                     	;# 
   368  010C                     	;# 
   369  010D                     	;# 
   370  010E                     	;# 
   371  010F                     	;# 
   372  018C                     	;# 
   373  018D                     	;# 
   374  0000                     	;# 
   375  0001                     	;# 
   376  0002                     	;# 
   377  0003                     	;# 
   378  0004                     	;# 
   379  0005                     	;# 
   380  0006                     	;# 
   381  0007                     	;# 
   382  0008                     	;# 
   383  0009                     	;# 
   384  000A                     	;# 
   385  000B                     	;# 
   386  000C                     	;# 
   387  000D                     	;# 
   388  000E                     	;# 
   389  000E                     	;# 
   390  000F                     	;# 
   391  0010                     	;# 
   392  0011                     	;# 
   393  0012                     	;# 
   394  0013                     	;# 
   395  0014                     	;# 
   396  0015                     	;# 
   397  0015                     	;# 
   398  0016                     	;# 
   399  0017                     	;# 
   400  0018                     	;# 
   401  0019                     	;# 
   402  001A                     	;# 
   403  001B                     	;# 
   404  001B                     	;# 
   405  001C                     	;# 
   406  001D                     	;# 
   407  001E                     	;# 
   408  001F                     	;# 
   409  0081                     	;# 
   410  0085                     	;# 
   411  0086                     	;# 
   412  0087                     	;# 
   413  0088                     	;# 
   414  0089                     	;# 
   415  008C                     	;# 
   416  008D                     	;# 
   417  008E                     	;# 
   418  0091                     	;# 
   419  0092                     	;# 
   420  0093                     	;# 
   421  0094                     	;# 
   422  0098                     	;# 
   423  0099                     	;# 
   424  009C                     	;# 
   425  009D                     	;# 
   426  009E                     	;# 
   427  009F                     	;# 
   428  010C                     	;# 
   429  010D                     	;# 
   430  010E                     	;# 
   431  010F                     	;# 
   432  018C                     	;# 
   433  018D                     	;# 
   434                           
   435                           	psect	idataCOMMON
   436  07FE                     __pidataCOMMON:
   437                           
   438                           ;initializer for read_matrix_keypad@once
   439  07FE  3401               	retlw	1
   440  0008                     _PORTD	set	8
   441  0061                     _TMR2IF	set	97
   442  0091                     _T2CKPS1	set	145
   443  0090                     _T2CKPS0	set	144
   444  0032                     _RB2	set	50
   445  0031                     _RB1	set	49
   446  0030                     _RB0	set	48
   447  0040                     _RD0	set	64
   448  0041                     _RD1	set	65
   449  0042                     _RD2	set	66
   450  0043                     _RD3	set	67
   451  0049                     _RE1	set	73
   452  004A                     _RE2	set	74
   453  0033                     _RB3	set	51
   454  0092                     _TMR2ON	set	146
   455  0039                     _RC1	set	57
   456  003A                     _RC2	set	58
   457  005F                     _GIE	set	95
   458  005E                     _PEIE	set	94
   459  0092                     _PR2	set	146
   460  0086                     _TRISB	set	134
   461  0088                     _TRISD	set	136
   462  0461                     _TMR2IE	set	1121
   463  040F                     _nRBPU	set	1039
   464  0449                     _TRISE1	set	1097
   465  044A                     _TRISE2	set	1098
   466  0433                     _TRISB3	set	1075
   467  0439                     _TRISC1	set	1081
   468  043A                     _TRISC2	set	1082
   469                           
   470                           	psect	strings
   471  0800                     __pstrings:
   472  0800                     stringtab:
   473  0800                     __stringtab:
   474                           
   475                           ;	String table - string pointers are 2 bytes each
   476  0800  1BFF               	btfsc	btemp+1,7
   477  0801  280A               	ljmp	stringcode
   478  0802  1383               	bcf	3,7
   479  0803  187F               	btfsc	btemp+1,0
   480  0804  1783               	bsf	3,7
   481  0805  0800               	movf	0,w
   482  0806  0A84               	incf	4,f
   483  0807  1903               	skipnz
   484  0808  0AFF               	incf	btemp+1,f
   485  0809  0008               	return
   486  080A                     stringcode:
   487  080A  087F               	movf	btemp+1,w
   488  080B  397F               	andlw	127
   489  080C  008A               	movwf	10
   490  080D  0804               	movf	4,w
   491  080E  0A84               	incf	4,f
   492  080F  1903               	skipnz
   493  0810  0AFF               	incf	btemp+1,f
   494  0811  0082               	movwf	2
   495  0812                     __stringbase:
   496  0812                     __end_of__stringtab:
   497                           
   498                           	psect	stringtext
   499  0600                     __pstringtext:
   500  0600                     STR_8:
   501  0600  3453               	retlw	83	;'S'
   502  0601  3445               	retlw	69	;'E'
   503  0602  3454               	retlw	84	;'T'
   504  0603  3420               	retlw	32	;' '
   505  0604  3454               	retlw	84	;'T'
   506  0605  3449               	retlw	73	;'I'
   507  0606  344D               	retlw	77	;'M'
   508  0607  3445               	retlw	69	;'E'
   509  0608  3420               	retlw	32	;' '
   510  0609  343C               	retlw	60	;'<'
   511  060A  344D               	retlw	77	;'M'
   512  060B  344D               	retlw	77	;'M'
   513  060C  343A               	retlw	58	;':'
   514  060D  3453               	retlw	83	;'S'
   515  060E  3453               	retlw	83	;'S'
   516  060F  343E               	retlw	62	;'>'
   517  0610  3420               	retlw	32	;' '
   518  0611  3400               	retlw	0
   519  0612                     STR_2:
   520  0612  3420               	retlw	32	;' '
   521  0613  3420               	retlw	32	;' '
   522  0614  3450               	retlw	80	;'P'
   523  0615  346F               	retlw	111	;'o'
   524  0616  3477               	retlw	119	;'w'
   525  0617  3465               	retlw	101	;'e'
   526  0618  3472               	retlw	114	;'r'
   527  0619  3469               	retlw	105	;'i'
   528  061A  346E               	retlw	110	;'n'
   529  061B  3467               	retlw	103	;'g'
   530  061C  3420               	retlw	32	;' '
   531  061D  344F               	retlw	79	;'O'
   532  061E  344E               	retlw	78	;'N'
   533  061F  3420               	retlw	32	;' '
   534  0620  3420               	retlw	32	;' '
   535  0621  3420               	retlw	32	;' '
   536  0622  3400               	retlw	0
   537  0623                     STR_23:
   538  0623  3420               	retlw	32	;' '
   539  0624  3420               	retlw	32	;' '
   540  0625  3450               	retlw	80	;'P'
   541  0626  3472               	retlw	114	;'r'
   542  0627  3465               	retlw	101	;'e'
   543  0628  342D               	retlw	45	;'-'
   544  0629  3448               	retlw	72	;'H'
   545  062A  3465               	retlw	101	;'e'
   546  062B  3461               	retlw	97	;'a'
   547  062C  3474               	retlw	116	;'t'
   548  062D  3469               	retlw	105	;'i'
   549  062E  346E               	retlw	110	;'n'
   550  062F  3467               	retlw	103	;'g'
   551  0630  3420               	retlw	32	;' '
   552  0631  3420               	retlw	32	;' '
   553  0632  3420               	retlw	32	;' '
   554  0633  3400               	retlw	0
   555  0634                     STR_3:
   556  0634  3420               	retlw	32	;' '
   557  0635  344D               	retlw	77	;'M'
   558  0636  3469               	retlw	105	;'i'
   559  0637  3463               	retlw	99	;'c'
   560  0638  3472               	retlw	114	;'r'
   561  0639  346F               	retlw	111	;'o'
   562  063A  3477               	retlw	119	;'w'
   563  063B  3461               	retlw	97	;'a'
   564  063C  3476               	retlw	118	;'v'
   565  063D  3465               	retlw	101	;'e'
   566  063E  3420               	retlw	32	;' '
   567  063F  344F               	retlw	79	;'O'
   568  0640  3476               	retlw	118	;'v'
   569  0641  3465               	retlw	101	;'e'
   570  0642  346E               	retlw	110	;'n'
   571  0643  3420               	retlw	32	;' '
   572  0644  3400               	retlw	0
   573  0645                     STR_13:
   574  0645  3444               	retlw	68	;'D'
   575  0646  344F               	retlw	79	;'O'
   576  0647  344F               	retlw	79	;'O'
   577  0648  3452               	retlw	82	;'R'
   578  0649  3420               	retlw	32	;' '
   579  064A  3453               	retlw	83	;'S'
   580  064B  3454               	retlw	84	;'T'
   581  064C  3441               	retlw	65	;'A'
   582  064D  3454               	retlw	84	;'T'
   583  064E  3455               	retlw	85	;'U'
   584  064F  3453               	retlw	83	;'S'
   585  0650  343A               	retlw	58	;':'
   586  0651  344F               	retlw	79	;'O'
   587  0652  3450               	retlw	80	;'P'
   588  0653  3445               	retlw	69	;'E'
   589  0654  344E               	retlw	78	;'N'
   590  0655  3400               	retlw	0
   591  0656                     STR_10:
   592  0656  342A               	retlw	42	;'*'
   593  0657  343A               	retlw	58	;':'
   594  0658  3443               	retlw	67	;'C'
   595  0659  344C               	retlw	76	;'L'
   596  065A  3445               	retlw	69	;'E'
   597  065B  3441               	retlw	65	;'A'
   598  065C  3452               	retlw	82	;'R'
   599  065D  3420               	retlw	32	;' '
   600  065E  3420               	retlw	32	;' '
   601  065F  3423               	retlw	35	;'#'
   602  0660  343A               	retlw	58	;':'
   603  0661  3445               	retlw	69	;'E'
   604  0662  344E               	retlw	78	;'N'
   605  0663  3454               	retlw	84	;'T'
   606  0664  3445               	retlw	69	;'E'
   607  0665  3452               	retlw	82	;'R'
   608  0666  3400               	retlw	0
   609  0667                     STR_16:
   610  0667  3420               	retlw	32	;' '
   611  0668  3434               	retlw	52	;'4'
   612  0669  342E               	retlw	46	;'.'
   613  066A  3453               	retlw	83	;'S'
   614  066B  3474               	retlw	116	;'t'
   615  066C  3461               	retlw	97	;'a'
   616  066D  3472               	retlw	114	;'r'
   617  066E  3474               	retlw	116	;'t'
   618  066F  342F               	retlw	47	;'/'
   619  0670  3452               	retlw	82	;'R'
   620  0671  3465               	retlw	101	;'e'
   621  0672  3473               	retlw	115	;'s'
   622  0673  3475               	retlw	117	;'u'
   623  0674  346D               	retlw	109	;'m'
   624  0675  3465               	retlw	101	;'e'
   625  0676  3400               	retlw	0
   626  0677                     STR_14:
   627  0677  3450               	retlw	80	;'P'
   628  0678  344C               	retlw	76	;'L'
   629  0679  3445               	retlw	69	;'E'
   630  067A  3441               	retlw	65	;'A'
   631  067B  3453               	retlw	83	;'S'
   632  067C  3445               	retlw	69	;'E'
   633  067D  3420               	retlw	32	;' '
   634  067E  3443               	retlw	67	;'C'
   635  067F  344C               	retlw	76	;'L'
   636  0680  344F               	retlw	79	;'O'
   637  0681  3453               	retlw	83	;'S'
   638  0682  3445               	retlw	69	;'E'
   639  0683  3421               	retlw	33	;'!'
   640  0684  3421               	retlw	33	;'!'
   641  0685  3400               	retlw	0
   642  0686                     STR_20:
   643  0686  3420               	retlw	32	;' '
   644  0687  3453               	retlw	83	;'S'
   645  0688  3445               	retlw	69	;'E'
   646  0689  3454               	retlw	84	;'T'
   647  068A  3420               	retlw	32	;' '
   648  068B  3454               	retlw	84	;'T'
   649  068C  3445               	retlw	69	;'E'
   650  068D  344D               	retlw	77	;'M'
   651  068E  3450               	retlw	80	;'P'
   652  068F  3420               	retlw	32	;' '
   653  0690  3428               	retlw	40	;'('
   654  0691  3420               	retlw	32	;' '
   655  0692  3443               	retlw	67	;'C'
   656  0693  3429               	retlw	41	;')'
   657  0694  3400               	retlw	0
   658  0695                     STR_1:
   659  0695  3420               	retlw	32	;' '
   660  0696  3450               	retlw	80	;'P'
   661  0697  346F               	retlw	111	;'o'
   662  0698  3477               	retlw	119	;'w'
   663  0699  3465               	retlw	101	;'e'
   664  069A  3472               	retlw	114	;'r'
   665  069B  3420               	retlw	32	;' '
   666  069C  343D               	retlw	61	;'='
   667  069D  3420               	retlw	32	;' '
   668  069E  3439               	retlw	57	;'9'
   669  069F  3430               	retlw	48	;'0'
   670  06A0  3430               	retlw	48	;'0'
   671  06A1  3457               	retlw	87	;'W'
   672  06A2  3400               	retlw	0
   673  06A3                     STR_6:
   674  06A3  3433               	retlw	51	;'3'
   675  06A4  342E               	retlw	46	;'.'
   676  06A5  3443               	retlw	67	;'C'
   677  06A6  346F               	retlw	111	;'o'
   678  06A7  346E               	retlw	110	;'n'
   679  06A8  3476               	retlw	118	;'v'
   680  06A9  3465               	retlw	101	;'e'
   681  06AA  3463               	retlw	99	;'c'
   682  06AB  3474               	retlw	116	;'t'
   683  06AC  3469               	retlw	105	;'i'
   684  06AD  346F               	retlw	111	;'o'
   685  06AE  346E               	retlw	110	;'n'
   686  06AF  3400               	retlw	0
   687  06B0                     STR_24:
   688  06B0  3454               	retlw	84	;'T'
   689  06B1  3469               	retlw	105	;'i'
   690  06B2  346D               	retlw	109	;'m'
   691  06B3  3465               	retlw	101	;'e'
   692  06B4  3420               	retlw	32	;' '
   693  06B5  3452               	retlw	82	;'R'
   694  06B6  3465               	retlw	101	;'e'
   695  06B7  346D               	retlw	109	;'m'
   696  06B8  342E               	retlw	46	;'.'
   697  06B9  343D               	retlw	61	;'='
   698  06BA  3420               	retlw	32	;' '
   699  06BB  3400               	retlw	0
   700  06BC                     STR_15:
   701  06BC  3420               	retlw	32	;' '
   702  06BD  3454               	retlw	84	;'T'
   703  06BE  3449               	retlw	73	;'I'
   704  06BF  344D               	retlw	77	;'M'
   705  06C0  3445               	retlw	69	;'E'
   706  06C1  3420               	retlw	32	;' '
   707  06C2  343D               	retlw	61	;'='
   708  06C3  3420               	retlw	32	;' '
   709  06C4  3420               	retlw	32	;' '
   710  06C5  3400               	retlw	0
   711  06C6                     STR_19:
   712  06C6  3454               	retlw	84	;'T'
   713  06C7  3449               	retlw	73	;'I'
   714  06C8  344D               	retlw	77	;'M'
   715  06C9  3445               	retlw	69	;'E'
   716  06CA  3420               	retlw	32	;' '
   717  06CB  3455               	retlw	85	;'U'
   718  06CC  3450               	retlw	80	;'P'
   719  06CD  3421               	retlw	33	;'!'
   720  06CE  3421               	retlw	33	;'!'
   721  06CF  3400               	retlw	0
   722  06D0                     STR_17:
   723  06D0  3420               	retlw	32	;' '
   724  06D1  3435               	retlw	53	;'5'
   725  06D2  342E               	retlw	46	;'.'
   726  06D3  3450               	retlw	80	;'P'
   727  06D4  3461               	retlw	97	;'a'
   728  06D5  3475               	retlw	117	;'u'
   729  06D6  3473               	retlw	115	;'s'
   730  06D7  3465               	retlw	101	;'e'
   731  06D8  3400               	retlw	0
   732  06D9                     STR_21:
   733  06D9  3420               	retlw	32	;' '
   734  06DA  3454               	retlw	84	;'T'
   735  06DB  3445               	retlw	69	;'E'
   736  06DC  344D               	retlw	77	;'M'
   737  06DD  3450               	retlw	80	;'P'
   738  06DE  3420               	retlw	32	;' '
   739  06DF  343D               	retlw	61	;'='
   740  06E0  3400               	retlw	0
   741  06E1                     STR_5:
   742  06E1  3432               	retlw	50	;'2'
   743  06E2  342E               	retlw	46	;'.'
   744  06E3  3447               	retlw	71	;'G'
   745  06E4  3472               	retlw	114	;'r'
   746  06E5  3469               	retlw	105	;'i'
   747  06E6  346C               	retlw	108	;'l'
   748  06E7  346C               	retlw	108	;'l'
   749  06E8  3400               	retlw	0
   750  06E9                     STR_4:
   751  06E9  3431               	retlw	49	;'1'
   752  06EA  342E               	retlw	46	;'.'
   753  06EB  344D               	retlw	77	;'M'
   754  06EC  3469               	retlw	105	;'i'
   755  06ED  3463               	retlw	99	;'c'
   756  06EE  3472               	retlw	114	;'r'
   757  06EF  346F               	retlw	111	;'o'
   758  06F0  3400               	retlw	0
   759  06F1                     STR_18:
   760  06F1  3420               	retlw	32	;' '
   761  06F2  3436               	retlw	54	;'6'
   762  06F3  342E               	retlw	46	;'.'
   763  06F4  3453               	retlw	83	;'S'
   764  06F5  3474               	retlw	116	;'t'
   765  06F6  346F               	retlw	111	;'o'
   766  06F7  3470               	retlw	112	;'p'
   767  06F8  3400               	retlw	0
   768  06F9                     STR_7:
   769  06F9  3434               	retlw	52	;'4'
   770  06FA  342E               	retlw	46	;'.'
   771  06FB  3453               	retlw	83	;'S'
   772  06FC  3474               	retlw	116	;'t'
   773  06FD  3461               	retlw	97	;'a'
   774  06FE  3472               	retlw	114	;'r'
   775  06FF  3474               	retlw	116	;'t'
   776  0700  3400               	retlw	0
   777  0701                     STR_9:
   778  0701  3454               	retlw	84	;'T'
   779  0702  3449               	retlw	73	;'I'
   780  0703  344D               	retlw	77	;'M'
   781  0704  3445               	retlw	69	;'E'
   782  0705  342D               	retlw	45	;'-'
   783  0706  3420               	retlw	32	;' '
   784  0707  3400               	retlw	0
   785  0620                     
   786                           	psect	cinit
   787  000F                     start_initialization:	
   788                           ; #config settings
   789                           
   790  000F                     __initialization:
   791                           
   792                           ; Initialize objects allocated to COMMON
   793  000F  120A  118A  27FE  120A  118A  	fcall	__pidataCOMMON	;fetch initializer
   794  0014  00FA               	movwf	__pdataCOMMON& (0+127)
   795                           
   796                           ; Clear objects allocated to BANK0
   797  0015  1383               	bcf	3,7	;select IRP bank0
   798  0016  3020               	movlw	low __pbssBANK0
   799  0017  0084               	movwf	4
   800  0018  303A               	movlw	low (__pbssBANK0+26)
   801  0019  120A  158A  24A9  120A  118A  	fcall	clear_ram0
   802                           
   803                           ; Clear objects allocated to COMMON
   804  001E  01F9               	clrf	__pbssCOMMON& (0+127)
   805  001F                     end_of_initialization:	
   806                           ;End of C runtime variable initialization code
   807                           
   808  001F                     __end_of__initialization:
   809  001F  0183               	clrf	3
   810  0020  120A  118A  2BD4   	ljmp	_main	;jump to C main() function
   811                           
   812                           	psect	bssCOMMON
   813  0079                     __pbssCOMMON:
   814  0079                     _flag:
   815  0079                     	ds	1
   816                           
   817                           	psect	dataCOMMON
   818  007A                     __pdataCOMMON:
   819  007A                     read_matrix_keypad@once:
   820  007A                     	ds	1
   821                           
   822                           	psect	bssBANK0
   823  0020                     __pbssBANK0:
   824  0020                     isr@count:
   825  0020                     	ds	2
   826  0022                     set_temp@key_count:
   827  0022                     	ds	2
   828  0024                     set_temp@blink:
   829  0024                     	ds	2
   830  0026                     set_temp@wait:
   831  0026                     	ds	2
   832  0028                     set_time@blink_pos:
   833  0028                     	ds	2
   834  002A                     set_time@key_count:
   835  002A                     	ds	2
   836  002C                     set_time@blink:
   837  002C                     	ds	2
   838  002E                     set_time@wait:
   839  002E                     	ds	2
   840  0030                     _convec_mode_op:
   841  0030                     	ds	1
   842  0031                     _reset_flag:
   843  0031                     	ds	1
   844  0032                     _operation_mode:
   845  0032                     	ds	1
   846  0033                     _temp:
   847  0033                     	ds	1
   848  0034                     _min:
   849  0034                     	ds	1
   850  0035                     _sec:
   851  0035                     	ds	1
   852  0036                     set_temp@temp_arr:
   853  0036                     	ds	4
   854                           
   855                           	psect	clrtext
   856  0CA9                     clear_ram0:	
   857                           ;	Called with FSR containing the base address, and
   858                           ;	W with the last address+1
   859                           
   860  0CA9  0064               	clrwdt	;clear the watchdog before getting into this loop
   861  0CAA                     clrloop0:
   862  0CAA  0180               	clrf	0	;clear RAM location pointed to by FSR
   863  0CAB  0A84               	incf	4,f	;increment pointer
   864  0CAC  0604               	xorwf	4,w	;XOR with final address
   865  0CAD  1903               	btfsc	3,2	;have we reached the end yet?
   866  0CAE  3400               	retlw	0	;all done for this memory range, return
   867  0CAF  0604               	xorwf	4,w	;XOR again to restore value
   868  0CB0  2CAA               	goto	clrloop0	;do the next byte
   869                           
   870                           	psect	cstackCOMMON
   871  0070                     __pcstackCOMMON:
   872  0070                     ?_init_clcd:
   873  0070                     ?_init_matrix_keypad:	
   874                           ; 1 bytes @ 0x0
   875                           
   876  0070                     ?_init_timer2:	
   877                           ; 1 bytes @ 0x0
   878                           
   879  0070                     ?_power_on_screen:	
   880                           ; 1 bytes @ 0x0
   881                           
   882  0070                     ?_clear_clcd:	
   883                           ; 1 bytes @ 0x0
   884                           
   885  0070                     ?_read_matrix_keypad:	
   886                           ; 1 bytes @ 0x0
   887                           
   888  0070                     ?_cooking_mode_display:	
   889                           ; 1 bytes @ 0x0
   890                           
   891  0070                     ?_set_time:	
   892                           ; 1 bytes @ 0x0
   893                           
   894  0070                     ?_set_temp:	
   895                           ; 1 bytes @ 0x0
   896                           
   897  0070                     ?_time_display_screen:	
   898                           ; 1 bytes @ 0x0
   899                           
   900  0070                     ?_init_config:	
   901                           ; 1 bytes @ 0x0
   902                           
   903  0070                     ?_main:	
   904                           ; 1 bytes @ 0x0
   905                           
   906  0070                     ?_door_status_check:	
   907                           ; 1 bytes @ 0x0
   908                           
   909  0070                     ?_init_display_controller:	
   910                           ; 1 bytes @ 0x0
   911                           
   912  0070                     ?_scan_keypad:	
   913                           ; 1 bytes @ 0x0
   914                           
   915  0070                     ?_isr:	
   916                           ; 1 bytes @ 0x0
   917                           
   918  0070                     ??_isr:	
   919                           ; 1 bytes @ 0x0
   920                           
   921                           
   922                           ; 1 bytes @ 0x0
   923  0070                     	ds	3
   924  0073                     ??_init_matrix_keypad:
   925  0073                     ??_init_timer2:	
   926                           ; 1 bytes @ 0x3
   927                           
   928  0073                     ?_clcd_write:	
   929                           ; 1 bytes @ 0x3
   930                           
   931  0073                     ??_scan_keypad:	
   932                           ; 1 bytes @ 0x3
   933                           
   934  0073                     ?___bmul:	
   935                           ; 1 bytes @ 0x3
   936                           
   937  0073                     ?___awdiv:	
   938                           ; 1 bytes @ 0x3
   939                           
   940  0073                     clcd_write@mode:	
   941                           ; 2 bytes @ 0x3
   942                           
   943  0073                     ___bmul@multiplicand:	
   944                           ; 1 bytes @ 0x3
   945                           
   946  0073                     scan_keypad@i:	
   947                           ; 1 bytes @ 0x3
   948                           
   949  0073                     ___awdiv@divisor:	
   950                           ; 2 bytes @ 0x3
   951                           
   952                           
   953                           ; 2 bytes @ 0x3
   954  0073                     	ds	1
   955  0074                     ??_clcd_write:
   956  0074                     ??___bmul:	
   957                           ; 1 bytes @ 0x4
   958                           
   959                           
   960                           ; 1 bytes @ 0x4
   961  0074                     	ds	1
   962  0075                     ??_read_matrix_keypad:
   963  0075                     ___bmul@product:	
   964                           ; 1 bytes @ 0x5
   965                           
   966  0075                     ___awdiv@dividend:	
   967                           ; 1 bytes @ 0x5
   968                           
   969                           
   970                           ; 2 bytes @ 0x5
   971  0075                     	ds	1
   972  0076                     clcd_write@byte:
   973  0076                     read_matrix_keypad@mode:	
   974                           ; 1 bytes @ 0x6
   975                           
   976  0076                     ___bmul@multiplier:	
   977                           ; 1 bytes @ 0x6
   978                           
   979                           
   980                           ; 1 bytes @ 0x6
   981  0076                     	ds	1
   982  0077                     ??_clear_clcd:
   983  0077                     ??_clcd_print:	
   984                           ; 1 bytes @ 0x7
   985                           
   986  0077                     ??_cooking_mode_display:	
   987                           ; 1 bytes @ 0x7
   988                           
   989  0077                     ??_init_display_controller:	
   990                           ; 1 bytes @ 0x7
   991                           
   992  0077                     ??___awdiv:	
   993                           ; 1 bytes @ 0x7
   994                           
   995  0077                     read_matrix_keypad@key:	
   996                           ; 1 bytes @ 0x7
   997                           
   998                           
   999                           ; 1 bytes @ 0x7
  1000  0077                     	ds	1
  1001  0078                     ??_door_status_check:
  1002  0078                     ??___awmod:	
  1003                           ; 1 bytes @ 0x8
  1004                           
  1005                           
  1006                           ; 1 bytes @ 0x8
  1007  0078                     	ds	1
  1008  0079                     ??_init_clcd:
  1009  0079                     ??_clcd_putch:	
  1010                           ; 1 bytes @ 0x9
  1011                           
  1012  0079                     ??_init_config:	
  1013                           ; 1 bytes @ 0x9
  1014                           
  1015                           
  1016                           	psect	cstackBANK0
  1017  003A                     __pcstackBANK0:	
  1018                           ; 1 bytes @ 0x9
  1019                           
  1020  003A                     ?_clcd_print:
  1021  003A                     ___awdiv@counter:	
  1022                           ; 1 bytes @ 0x0
  1023                           
  1024  003A                     clcd_print@str:	
  1025                           ; 1 bytes @ 0x0
  1026                           
  1027                           
  1028                           ; 2 bytes @ 0x0
  1029  003A                     	ds	1
  1030  003B                     ___awdiv@sign:
  1031                           
  1032                           ; 1 bytes @ 0x1
  1033  003B                     	ds	1
  1034  003C                     clcd_print@addr:
  1035  003C                     ___awdiv@quotient:	
  1036                           ; 1 bytes @ 0x2
  1037                           
  1038                           
  1039                           ; 2 bytes @ 0x2
  1040  003C                     	ds	2
  1041  003E                     ?___awmod:
  1042  003E                     ___awmod@divisor:	
  1043                           ; 2 bytes @ 0x4
  1044                           
  1045                           
  1046                           ; 2 bytes @ 0x4
  1047  003E                     	ds	2
  1048  0040                     ___awmod@dividend:
  1049                           
  1050                           ; 2 bytes @ 0x6
  1051  0040                     	ds	2
  1052  0042                     ___awmod@counter:
  1053                           
  1054                           ; 1 bytes @ 0x8
  1055  0042                     	ds	1
  1056  0043                     ___awmod@sign:
  1057                           
  1058                           ; 1 bytes @ 0x9
  1059  0043                     	ds	1
  1060  0044                     ?_clcd_putch:
  1061  0044                     clcd_putch@addr:	
  1062                           ; 1 bytes @ 0xA
  1063                           
  1064                           
  1065                           ; 1 bytes @ 0xA
  1066  0044                     	ds	1
  1067  0045                     clcd_putch@data:
  1068                           
  1069                           ; 1 bytes @ 0xB
  1070  0045                     	ds	1
  1071  0046                     ??_power_on_screen:
  1072  0046                     ??_set_time:	
  1073                           ; 1 bytes @ 0xC
  1074                           
  1075  0046                     ??_set_temp:	
  1076                           ; 1 bytes @ 0xC
  1077                           
  1078  0046                     ??_time_display_screen:	
  1079                           ; 1 bytes @ 0xC
  1080                           
  1081                           
  1082                           ; 1 bytes @ 0xC
  1083  0046                     	ds	3
  1084  0049                     set_time@key:
  1085  0049                     set_temp@key:	
  1086                           ; 1 bytes @ 0xF
  1087                           
  1088  0049                     power_on_screen@i:	
  1089                           ; 1 bytes @ 0xF
  1090                           
  1091                           
  1092                           ; 2 bytes @ 0xF
  1093  0049                     	ds	2
  1094  004B                     power_on_screen@i_119:
  1095                           
  1096                           ; 2 bytes @ 0x11
  1097  004B                     	ds	2
  1098  004D                     ??_main:
  1099                           
  1100                           ; 1 bytes @ 0x13
  1101  004D                     	ds	3
  1102  0050                     main@key:
  1103                           
  1104                           ; 1 bytes @ 0x16
  1105  0050                     	ds	1
  1106                           
  1107                           	psect	maintext
  1108  03D4                     __pmaintext:	
  1109 ;;
  1110 ;;Main: autosize = 0, tempsize = 3, incstack = 0, save=0
  1111 ;;
  1112 ;; *************** function _main *****************
  1113 ;; Defined at:
  1114 ;;		line 41 in file "main.c"
  1115 ;; Parameters:    Size  Location     Type
  1116 ;;		None
  1117 ;; Auto vars:     Size  Location     Type
  1118 ;;  key             1   22[BANK0 ] unsigned char 
  1119 ;; Return value:  Size  Location     Type
  1120 ;;                  1    wreg      void 
  1121 ;; Registers used:
  1122 ;;		wreg, fsr0l, fsr0h, status,2, status,0, btemp+1, pclath, cstack
  1123 ;; Tracked objects:
  1124 ;;		On entry : B00/0
  1125 ;;		On exit  : 0/0
  1126 ;;		Unchanged: 0/0
  1127 ;; Data sizes:     COMMON   BANK0   BANK1   BANK3   BANK2
  1128 ;;      Params:         0       0       0       0       0
  1129 ;;      Locals:         0       1       0       0       0
  1130 ;;      Temps:          0       3       0       0       0
  1131 ;;      Totals:         0       4       0       0       0
  1132 ;;Total ram usage:        4 bytes
  1133 ;; Hardware stack levels required when called: 5
  1134 ;; This function calls:
  1135 ;;		_clcd_print
  1136 ;;		_clear_clcd
  1137 ;;		_cooking_mode_display
  1138 ;;		_init_config
  1139 ;;		_power_on_screen
  1140 ;;		_read_matrix_keypad
  1141 ;;		_set_temp
  1142 ;;		_set_time
  1143 ;;		_time_display_screen
  1144 ;; This function is called by:
  1145 ;;		Startup code after reset
  1146 ;; This function uses a non-reentrant model
  1147 ;;
  1148                           
  1149                           
  1150                           ;psect for function _main
  1151  03D4                     _main:
  1152  03D4                     l2715:	
  1153                           ;incstack = 0
  1154                           ; Regs used in _main: [wreg-fsr0h+status,2+status,0+btemp+1+pclath+cstack]
  1155                           
  1156                           
  1157                           ;main.c: 43:             reset_flag = 0x10;;main.c: 44:             clear_clcd();
  1158  03D4  120A  158A  24EE  120A  118A  	fcall	_init_config
  1159  03D9                     l2717:
  1160                           
  1161                           ;main.c: 45:             clcd_print(" Power = 900W",(0xC0 + 0));
  1162  03D9  120A  118A  2537  120A  118A  	fcall	_power_on_screen
  1163  03DE                     l2719:
  1164                           
  1165                           ;main.c: 46:             _delay((unsigned long)((3000)*(20000000/4000.0)));
  1166  03DE  120A  118A  27F1  120A  118A  	fcall	_clear_clcd
  1167  03E3                     l2721:
  1168                           
  1169                           ;main.c: 47:             clear_clcd();
  1170  03E3  1283               	bcf	3,5	;RP0=0, select bank0
  1171  03E4  1303               	bcf	3,6	;RP1=0, select bank0
  1172  03E5  01B2               	clrf	_operation_mode
  1173  03E6  0AB2               	incf	_operation_mode,f
  1174  03E7                     l2723:
  1175                           
  1176                           ;main.c: 50:         else if ( key == 2 && (operation_mode != 0x05) );main.c: 52:       
      +                                operation_mode = 0x03;
  1177  03E7  3001               	movlw	1
  1178  03E8  120A  158A  250F  120A  118A  	fcall	_read_matrix_keypad
  1179  03ED  1283               	bcf	3,5	;RP0=0, select bank0
  1180  03EE  1303               	bcf	3,6	;RP1=0, select bank0
  1181  03EF  00CD               	movwf	??_main
  1182  03F0  084D               	movf	??_main,w
  1183  03F1  00D0               	movwf	main@key
  1184  03F2                     l2725:
  1185                           
  1186                           ;main.c: 53:             reset_flag = 0x10;
  1187  03F2  3002               	movlw	2
  1188  03F3  0632               	xorwf	_operation_mode,w
  1189  03F4  1903               	btfsc	3,2
  1190  03F5  2BF7               	goto	u2491
  1191  03F6  2BF8               	goto	u2490
  1192  03F7                     u2491:
  1193  03F7  2D09               	goto	l2823
  1194  03F8                     u2490:
  1195  03F8                     l2727:
  1196  03F8  3003               	movlw	3
  1197  03F9  0632               	xorwf	_operation_mode,w
  1198  03FA  1903               	btfsc	3,2
  1199  03FB  2BFD               	goto	u2501
  1200  03FC  2BFE               	goto	u2500
  1201  03FD                     u2501:
  1202  03FD  2D09               	goto	l2823
  1203  03FE                     u2500:
  1204  03FE                     l2729:
  1205  03FE  3004               	movlw	4
  1206  03FF  0632               	xorwf	_operation_mode,w
  1207  0400  1D03               	btfss	3,2
  1208  0401  2C03               	goto	u2511
  1209  0402  2C04               	goto	u2510
  1210  0403                     u2511:
  1211  0403  2C06               	goto	l2731
  1212  0404                     u2510:
  1213  0404  2D09               	goto	l2823
  1214  0405                     l71:
  1215                           
  1216                           ;main.c: 54:             clear_clcd();;main.c: 56: 
  1217  0405  2D09               	goto	l2823
  1218  0406                     l2731:
  1219  0406  0350               	decf	main@key,w
  1220  0407  1D03               	btfss	3,2
  1221  0408  2C0A               	goto	u2521
  1222  0409  2C0B               	goto	u2520
  1223  040A                     u2521:
  1224  040A  2C41               	goto	l2745
  1225  040B                     u2520:
  1226  040B                     l2733:
  1227  040B  3005               	movlw	5
  1228  040C  0632               	xorwf	_operation_mode,w
  1229  040D  1903               	btfsc	3,2
  1230  040E  2C10               	goto	u2531
  1231  040F  2C11               	goto	u2530
  1232  0410                     u2531:
  1233  0410  2C41               	goto	l2745
  1234  0411                     u2530:
  1235  0411                     l2735:
  1236                           
  1237                           ;main.c: 59:             operation_mode = 0x04 ;;main.c: 60:             convec_mode_op 
      +                          = 0x09;
  1238  0411  3002               	movlw	2
  1239  0412  00CD               	movwf	??_main
  1240  0413  084D               	movf	??_main,w
  1241  0414  00B2               	movwf	_operation_mode
  1242                           
  1243                           ;main.c: 61:             reset_flag = 0x11 ;
  1244  0415  3010               	movlw	16
  1245  0416  00CD               	movwf	??_main
  1246  0417  084D               	movf	??_main,w
  1247  0418  00B1               	movwf	_reset_flag
  1248  0419                     l2737:
  1249                           
  1250                           ;main.c: 62:             clear_clcd();
  1251  0419  120A  118A  27F1  120A  118A  	fcall	_clear_clcd
  1252  041E                     l2739:
  1253                           
  1254                           ;main.c: 63:         }
  1255  041E  3095               	movlw	low (STR_1| (0+32768))
  1256  041F  1283               	bcf	3,5	;RP0=0, select bank0
  1257  0420  1303               	bcf	3,6	;RP1=0, select bank0
  1258  0421  00BA               	movwf	clcd_print@str
  1259  0422  3086               	movlw	high (STR_1| (0+32768))
  1260  0423  00BB               	movwf	clcd_print@str+1
  1261  0424  30C0               	movlw	192
  1262  0425  00CD               	movwf	??_main
  1263  0426  084D               	movf	??_main,w
  1264  0427  00BC               	movwf	clcd_print@addr
  1265  0428  120A  158A  2534  120A  118A  	fcall	_clcd_print
  1266  042D                     l2741:
  1267                           
  1268                           ;main.c: 64: 
  1269  042D  304D               	movlw	77
  1270  042E  1283               	bcf	3,5	;RP0=0, select bank0
  1271  042F  1303               	bcf	3,6	;RP1=0, select bank0
  1272  0430  00CF               	movwf	??_main+2
  1273  0431  3019               	movlw	25
  1274  0432  00CE               	movwf	??_main+1
  1275  0433  304F               	movlw	79
  1276  0434  00CD               	movwf	??_main
  1277  0435                     u2677:
  1278  0435  0BCD               	decfsz	??_main,f
  1279  0436  2C35               	goto	u2677
  1280  0437  0BCE               	decfsz	??_main+1,f
  1281  0438  2C35               	goto	u2677
  1282  0439  0BCF               	decfsz	??_main+2,f
  1283  043A  2C35               	goto	u2677
  1284  043B                     l2743:
  1285                           
  1286                           ;main.c: 65:         else if (key == 4)
  1287  043B  120A  118A  27F1  120A  118A  	fcall	_clear_clcd
  1288                           
  1289                           ;main.c: 66:         {
  1290  0440  2D09               	goto	l2823
  1291  0441                     l2745:
  1292  0441  3002               	movlw	2
  1293  0442  0650               	xorwf	main@key,w
  1294  0443  1D03               	btfss	3,2
  1295  0444  2C46               	goto	u2541
  1296  0445  2C47               	goto	u2540
  1297  0446                     u2541:
  1298  0446  2C56               	goto	l2753
  1299  0447                     u2540:
  1300  0447                     l2747:
  1301  0447  3005               	movlw	5
  1302  0448  0632               	xorwf	_operation_mode,w
  1303  0449  1903               	btfsc	3,2
  1304  044A  2C4C               	goto	u2551
  1305  044B  2C4D               	goto	u2550
  1306  044C                     u2551:
  1307  044C  2C56               	goto	l2753
  1308  044D                     u2550:
  1309  044D                     l2749:
  1310                           
  1311                           ;main.c: 69:             {;main.c: 70:                 min = 0;
  1312  044D  3003               	movlw	3
  1313  044E  00CD               	movwf	??_main
  1314  044F  084D               	movf	??_main,w
  1315  0450  00B2               	movwf	_operation_mode
  1316                           
  1317                           ;main.c: 71:                 sec = 30;
  1318  0451  3010               	movlw	16
  1319  0452  00CD               	movwf	??_main
  1320  0453  084D               	movf	??_main,w
  1321  0454  00B1               	movwf	_reset_flag
  1322  0455  2C3B               	goto	l2743
  1323  0456                     l2753:
  1324  0456  3003               	movlw	3
  1325  0457  0650               	xorwf	main@key,w
  1326  0458  1D03               	btfss	3,2
  1327  0459  2C5B               	goto	u2561
  1328  045A  2C5C               	goto	u2560
  1329  045B                     u2561:
  1330  045B  2C69               	goto	l2759
  1331  045C                     u2560:
  1332  045C                     l2755:
  1333                           
  1334                           ;main.c: 76: ;main.c: 77:             }
  1335  045C  3004               	movlw	4
  1336  045D  00CD               	movwf	??_main
  1337  045E  084D               	movf	??_main,w
  1338  045F  00B2               	movwf	_operation_mode
  1339                           
  1340                           ;main.c: 78: 
  1341  0460  3009               	movlw	9
  1342  0461  00CD               	movwf	??_main
  1343  0462  084D               	movf	??_main,w
  1344  0463  00B0               	movwf	_convec_mode_op
  1345                           
  1346                           ;main.c: 79:             else if ( operation_mode == 0x05)
  1347  0464  3011               	movlw	17
  1348  0465  00CD               	movwf	??_main
  1349  0466  084D               	movf	??_main,w
  1350  0467  00B1               	movwf	_reset_flag
  1351  0468  2C3B               	goto	l2743
  1352  0469                     l2759:
  1353  0469  3004               	movlw	4
  1354  046A  0650               	xorwf	main@key,w
  1355  046B  1D03               	btfss	3,2
  1356  046C  2C6E               	goto	u2571
  1357  046D  2C6F               	goto	u2570
  1358  046E                     u2571:
  1359  046E  2CAF               	goto	l2789
  1360  046F                     u2570:
  1361  046F                     l2761:
  1362                           
  1363                           ;main.c: 84:                 {;main.c: 86:                     sec = sec - 60 ;
  1364  046F  0332               	decf	_operation_mode,w
  1365  0470  1D03               	btfss	3,2
  1366  0471  2C73               	goto	u2581
  1367  0472  2C74               	goto	u2580
  1368  0473                     u2581:
  1369  0473  2C87               	goto	l2775
  1370  0474                     u2580:
  1371  0474                     l2763:
  1372                           
  1373                           ;main.c: 87:                 };main.c: 88:             }
  1374  0474  01B4               	clrf	_min
  1375  0475                     l2765:
  1376                           
  1377                           ;main.c: 89: 
  1378  0475  301E               	movlw	30
  1379  0476  00CD               	movwf	??_main
  1380  0477  084D               	movf	??_main,w
  1381  0478  00B5               	movwf	_sec
  1382  0479                     l2767:
  1383                           
  1384                           ;main.c: 90:             else if (operation_mode == 0x07)
  1385  0479  1512               	bsf	18,2	;volatile
  1386  047A                     l2769:
  1387                           
  1388                           ;main.c: 91:             {
  1389  047A  1507               	bsf	7,2	;volatile
  1390  047B                     l2771:
  1391                           
  1392                           ;main.c: 92:                 TMR2ON = 1;
  1393  047B  120A  118A  27F1  120A  118A  	fcall	_clear_clcd
  1394  0480                     l2773:
  1395                           
  1396                           ;main.c: 93:                 RC2 = 1;
  1397  0480  3005               	movlw	5
  1398  0481  1283               	bcf	3,5	;RP0=0, select bank0
  1399  0482  1303               	bcf	3,6	;RP1=0, select bank0
  1400  0483  00CD               	movwf	??_main
  1401  0484  084D               	movf	??_main,w
  1402  0485  00B2               	movwf	_operation_mode
  1403                           
  1404                           ;main.c: 95:             }
  1405  0486  2D09               	goto	l2823
  1406  0487                     l2775:
  1407  0487  3005               	movlw	5
  1408  0488  0632               	xorwf	_operation_mode,w
  1409  0489  1D03               	btfss	3,2
  1410  048A  2C8C               	goto	u2591
  1411  048B  2C8D               	goto	u2590
  1412  048C                     u2591:
  1413  048C  2CA2               	goto	l2783
  1414  048D                     u2590:
  1415  048D                     l2777:
  1416                           
  1417                           ;main.c: 98: ;main.c: 100:         {
  1418  048D  0835               	movf	_sec,w
  1419  048E  3E1E               	addlw	30
  1420  048F  00CD               	movwf	??_main
  1421  0490  084D               	movf	??_main,w
  1422  0491  00B5               	movwf	_sec
  1423  0492                     l2779:
  1424                           
  1425                           ;main.c: 101:             operation_mode = 0x07;
  1426  0492  303C               	movlw	60
  1427  0493  0235               	subwf	_sec,w
  1428  0494  1C03               	skipc
  1429  0495  2C97               	goto	u2601
  1430  0496  2C98               	goto	u2600
  1431  0497                     u2601:
  1432  0497  2C05               	goto	l71
  1433  0498                     u2600:
  1434  0498                     l2781:
  1435                           
  1436                           ;main.c: 102: ;main.c: 103:         }
  1437  0498  3001               	movlw	1
  1438  0499  00CD               	movwf	??_main
  1439  049A  084D               	movf	??_main,w
  1440  049B  07B4               	addwf	_min,f
  1441                           
  1442                           ;main.c: 104: 
  1443  049C  0835               	movf	_sec,w
  1444  049D  3EC4               	addlw	196
  1445  049E  00CD               	movwf	??_main
  1446  049F  084D               	movf	??_main,w
  1447  04A0  00B5               	movwf	_sec
  1448  04A1  2D09               	goto	l2823
  1449  04A2                     l2783:
  1450  04A2  3007               	movlw	7
  1451  04A3  0632               	xorwf	_operation_mode,w
  1452  04A4  1D03               	btfss	3,2
  1453  04A5  2CA7               	goto	u2611
  1454  04A6  2CA8               	goto	u2610
  1455  04A7                     u2611:
  1456  04A7  2C05               	goto	l71
  1457  04A8                     u2610:
  1458  04A8                     l2785:
  1459                           
  1460                           ;main.c: 109:         };main.c: 110: 
  1461  04A8  1512               	bsf	18,2	;volatile
  1462                           
  1463                           ;main.c: 111:         switch(operation_mode)
  1464  04A9  1507               	bsf	7,2	;volatile
  1465  04AA                     l2787:
  1466                           
  1467                           ;main.c: 112:         {
  1468  04AA  3008               	movlw	8
  1469  04AB  00CD               	movwf	??_main
  1470  04AC  084D               	movf	??_main,w
  1471  04AD  00B2               	movwf	_operation_mode
  1472  04AE  2D09               	goto	l2823
  1473  04AF                     l2789:
  1474  04AF  3005               	movlw	5
  1475  04B0  0650               	xorwf	main@key,w
  1476  04B1  1D03               	btfss	3,2
  1477  04B2  2CB4               	goto	u2621
  1478  04B3  2CB5               	goto	u2620
  1479  04B4                     u2621:
  1480  04B4  2CBA               	goto	l2793
  1481  04B5                     u2620:
  1482  04B5                     l2791:
  1483                           
  1484                           ;main.c: 118: ;main.c: 119:             case 0x03 : set_time(key);
  1485  04B5  3007               	movlw	7
  1486  04B6  00CD               	movwf	??_main
  1487  04B7  084D               	movf	??_main,w
  1488  04B8  00B2               	movwf	_operation_mode
  1489                           
  1490                           ;main.c: 121: 
  1491  04B9  2D09               	goto	l2823
  1492  04BA                     l2793:
  1493  04BA  3006               	movlw	6
  1494  04BB  0650               	xorwf	main@key,w
  1495  04BC  1D03               	btfss	3,2
  1496  04BD  2CBF               	goto	u2631
  1497  04BE  2CC0               	goto	u2630
  1498  04BF                     u2631:
  1499  04BF  2C05               	goto	l71
  1500  04C0                     u2630:
  1501  04C0                     l2795:
  1502                           
  1503                           ;main.c: 124:                                             set_temp(key);;main.c: 125:   
      +                                                                    if ( convec_mode_op == 0x0A)
  1504  04C0  3006               	movlw	6
  1505  04C1  00CD               	movwf	??_main
  1506  04C2  084D               	movf	??_main,w
  1507  04C3  00B2               	movwf	_operation_mode
  1508  04C4  2C3B               	goto	l2743
  1509  04C5                     l2799:
  1510  04C5  120A  118A  27B4  120A  118A  	fcall	_cooking_mode_display
  1511                           
  1512                           ;main.c: 132:                                          else if (convec_mode_op == 0x0A)
  1513  04CA  2D2D               	goto	l2825
  1514  04CB                     l2801:
  1515  04CB  0850               	movf	main@key,w
  1516  04CC  120A  118A  2023  120A  118A  	fcall	_set_time
  1517                           
  1518                           ;main.c: 135:                                          }
  1519  04D1  2D2D               	goto	l2825
  1520  04D2                     l2803:
  1521  04D2  0850               	movf	main@key,w
  1522  04D3  120A  118A  2023  120A  118A  	fcall	_set_time
  1523                           
  1524                           ;main.c: 138:             case 0x05 : time_display_screen();
  1525  04D8  2D2D               	goto	l2825
  1526  04D9                     l2805:
  1527  04D9  3009               	movlw	9
  1528  04DA  0630               	xorwf	_convec_mode_op,w
  1529  04DB  1D03               	btfss	3,2
  1530  04DC  2CDE               	goto	u2641
  1531  04DD  2CDF               	goto	u2640
  1532  04DE                     u2641:
  1533  04DE  2CEE               	goto	l2813
  1534  04DF                     u2640:
  1535  04DF                     l2807:
  1536                           
  1537                           ;main.c: 141:             case 0x06 : TMR2ON = 0;;main.c: 142:                          
      +                                          RC2 = 0;
  1538  04DF  0850               	movf	main@key,w
  1539  04E0  120A  118A  21FD  120A  118A  	fcall	_set_temp
  1540  04E5                     l2809:
  1541                           
  1542                           ;main.c: 143:                                          operation_mode = 0x01;
  1543  04E5  300A               	movlw	10
  1544  04E6  1283               	bcf	3,5	;RP0=0, select bank0
  1545  04E7  1303               	bcf	3,6	;RP1=0, select bank0
  1546  04E8  0630               	xorwf	_convec_mode_op,w
  1547  04E9  1D03               	btfss	3,2
  1548  04EA  2CEC               	goto	u2651
  1549  04EB  2CED               	goto	u2650
  1550  04EC                     u2651:
  1551  04EC  2D2D               	goto	l2825
  1552  04ED                     u2650:
  1553  04ED  2BE7               	goto	l2723
  1554  04EE                     l2813:
  1555  04EE  300A               	movlw	10
  1556  04EF  0630               	xorwf	_convec_mode_op,w
  1557  04F0  1D03               	btfss	3,2
  1558  04F1  2CF3               	goto	u2661
  1559  04F2  2CF4               	goto	u2660
  1560  04F3                     u2661:
  1561  04F3  2D2D               	goto	l2825
  1562  04F4                     u2660:
  1563  04F4                     l2815:
  1564                           
  1565                           ;main.c: 151:                                          break;;main.c: 152: 
  1566  04F4  0850               	movf	main@key,w
  1567  04F5  120A  118A  2023  120A  118A  	fcall	_set_time
  1568  04FA  2D2D               	goto	l2825
  1569  04FB                     l2817:
  1570  04FB  120A  158A  26FB  120A  118A  	fcall	_time_display_screen
  1571                           
  1572                           ;main.c: 157: 
  1573  0500  2D2D               	goto	l2825
  1574  0501                     l102:	
  1575                           ;main.c: 159:     }
  1576                           
  1577  0501  1112               	bcf	18,2	;volatile
  1578                           
  1579                           ;main.c: 160:     return;
  1580  0502  1107               	bcf	7,2	;volatile
  1581                           
  1582                           ;main.c: 161: }
  1583  0503  01B2               	clrf	_operation_mode
  1584  0504  0AB2               	incf	_operation_mode,f
  1585                           
  1586                           ;main.c: 162: void clear_clcd(void)
  1587  0505  2D2D               	goto	l2825
  1588  0506                     l103:	
  1589                           ;main.c: 164:     clcd_write(0x01 ,0);
  1590                           
  1591  0506  1112               	bcf	18,2	;volatile
  1592                           
  1593                           ;main.c: 165:     _delay((unsigned long)((100)*(20000000/4000000.0)));
  1594  0507  1107               	bcf	7,2	;volatile
  1595                           
  1596                           ;main.c: 166: }
  1597  0508  2D2D               	goto	l2825
  1598  0509                     l2823:
  1599  0509  1283               	bcf	3,5	;RP0=0, select bank0
  1600  050A  1303               	bcf	3,6	;RP1=0, select bank0
  1601  050B  0832               	movf	_operation_mode,w
  1602  050C  00CD               	movwf	??_main
  1603  050D  01CE               	clrf	??_main+1
  1604                           
  1605                           ; Switch on 2 bytes has been partitioned into a top level switch of size 1, and 1 sub-sw
      +                          itches
  1606                           ; Switch size 1, requested type "simple"
  1607                           ; Number of cases is 1, Range of values is 0 to 0
  1608                           ; switch strategies available:
  1609                           ; Name         Instructions Cycles
  1610                           ; simple_byte            4     3 (average)
  1611                           ; direct_byte           11     8 (fixed)
  1612                           ; jumptable            260     6 (fixed)
  1613                           ;	Chosen strategy is simple_byte
  1614  050E  084E               	movf	??_main+1,w
  1615  050F  3A00               	xorlw	0	; case 0
  1616  0510  1903               	skipnz
  1617  0511  2D13               	goto	l2883
  1618  0512  2D2D               	goto	l2825
  1619  0513                     l2883:
  1620                           
  1621                           ; Switch size 1, requested type "simple"
  1622                           ; Number of cases is 8, Range of values is 1 to 8
  1623                           ; switch strategies available:
  1624                           ; Name         Instructions Cycles
  1625                           ; simple_byte           25    13 (average)
  1626                           ; direct_byte           35    11 (fixed)
  1627                           ; jumptable            263     9 (fixed)
  1628                           ;	Chosen strategy is simple_byte
  1629  0513  084D               	movf	??_main,w
  1630  0514  3A01               	xorlw	1	; case 1
  1631  0515  1903               	skipnz
  1632  0516  2CC5               	goto	l2799
  1633  0517  3A03               	xorlw	3	; case 2
  1634  0518  1903               	skipnz
  1635  0519  2CCB               	goto	l2801
  1636  051A  3A01               	xorlw	1	; case 3
  1637  051B  1903               	skipnz
  1638  051C  2CD2               	goto	l2803
  1639  051D  3A07               	xorlw	7	; case 4
  1640  051E  1903               	skipnz
  1641  051F  2CD9               	goto	l2805
  1642  0520  3A01               	xorlw	1	; case 5
  1643  0521  1903               	skipnz
  1644  0522  2CFB               	goto	l2817
  1645  0523  3A03               	xorlw	3	; case 6
  1646  0524  1903               	skipnz
  1647  0525  2D01               	goto	l102
  1648  0526  3A01               	xorlw	1	; case 7
  1649  0527  1903               	skipnz
  1650  0528  2D06               	goto	l103
  1651  0529  3A0F               	xorlw	15	; case 8
  1652  052A  1903               	skipnz
  1653  052B  2CFB               	goto	l2817
  1654  052C  2D2D               	goto	l2825
  1655  052D                     l2825:
  1656                           
  1657                           ;main.c: 176:     {
  1658  052D  300F               	movlw	15
  1659  052E  1283               	bcf	3,5	;RP0=0, select bank0
  1660  052F  1303               	bcf	3,6	;RP1=0, select bank0
  1661  0530  00CD               	movwf	??_main
  1662  0531  084D               	movf	??_main,w
  1663  0532  00B1               	movwf	_reset_flag
  1664  0533  2BE7               	goto	l2723
  1665  0534  120A  118A  280C   	ljmp	start
  1666  0537                     __end_of_main:
  1667                           
  1668                           	psect	text1
  1669  0EFB                     __ptext1:	
  1670 ;; *************** function _time_display_screen *****************
  1671 ;; Defined at:
  1672 ;;		line 328 in file "main.c"
  1673 ;; Parameters:    Size  Location     Type
  1674 ;;		None
  1675 ;; Auto vars:     Size  Location     Type
  1676 ;;		None
  1677 ;; Return value:  Size  Location     Type
  1678 ;;                  1    wreg      void 
  1679 ;; Registers used:
  1680 ;;		wreg, fsr0l, fsr0h, status,2, status,0, btemp+1, pclath, cstack
  1681 ;; Tracked objects:
  1682 ;;		On entry : 0/0
  1683 ;;		On exit  : 0/0
  1684 ;;		Unchanged: 0/0
  1685 ;; Data sizes:     COMMON   BANK0   BANK1   BANK3   BANK2
  1686 ;;      Params:         0       0       0       0       0
  1687 ;;      Locals:         0       0       0       0       0
  1688 ;;      Temps:          0       3       0       0       0
  1689 ;;      Totals:         0       3       0       0       0
  1690 ;;Total ram usage:        3 bytes
  1691 ;; Hardware stack levels used: 1
  1692 ;; Hardware stack levels required when called: 4
  1693 ;; This function calls:
  1694 ;;		___awdiv
  1695 ;;		___awmod
  1696 ;;		_clcd_print
  1697 ;;		_clcd_putch
  1698 ;;		_clear_clcd
  1699 ;;		_door_status_check
  1700 ;; This function is called by:
  1701 ;;		_main
  1702 ;; This function uses a non-reentrant model
  1703 ;;
  1704                           
  1705                           
  1706                           ;psect for function _time_display_screen
  1707  0EFB                     _time_display_screen:
  1708  0EFB                     l2675:	
  1709                           ;incstack = 0
  1710                           ; Regs used in _time_display_screen: [wreg-fsr0h+status,2+status,0+btemp+1+pclath+cstack
      +                          ]
  1711                           
  1712                           
  1713                           ;main.c: 331:      clcd_putch(sec%10 + '0',(0x80 + 13));
  1714  0EFB  120A  118A  25B0  120A  158A  	fcall	_door_status_check
  1715                           
  1716                           ;main.c: 334: 
  1717  0F00  30BC               	movlw	low (STR_15| (0+32768))
  1718  0F01  1283               	bcf	3,5	;RP0=0, select bank0
  1719  0F02  1303               	bcf	3,6	;RP1=0, select bank0
  1720  0F03  00BA               	movwf	clcd_print@str
  1721  0F04  3086               	movlw	high (STR_15| (0+32768))
  1722  0F05  00BB               	movwf	clcd_print@str+1
  1723  0F06  3080               	movlw	128
  1724  0F07  00C6               	movwf	??_time_display_screen
  1725  0F08  0846               	movf	??_time_display_screen,w
  1726  0F09  00BC               	movwf	clcd_print@addr
  1727  0F0A  120A  158A  2534  120A  158A  	fcall	_clcd_print
  1728  0F0F                     l2677:
  1729                           
  1730                           ;main.c: 339:      if((sec == 0) && (min == 0))
  1731  0F0F  3089               	movlw	137
  1732  0F10  1283               	bcf	3,5	;RP0=0, select bank0
  1733  0F11  1303               	bcf	3,6	;RP1=0, select bank0
  1734  0F12  00C6               	movwf	??_time_display_screen
  1735  0F13  0846               	movf	??_time_display_screen,w
  1736  0F14  00C4               	movwf	clcd_putch@addr
  1737  0F15  300A               	movlw	10
  1738  0F16  00F3               	movwf	___awdiv@divisor
  1739  0F17  3000               	movlw	0
  1740  0F18  00F4               	movwf	___awdiv@divisor+1
  1741  0F19  0834               	movf	_min,w
  1742  0F1A  00C7               	movwf	??_time_display_screen+1
  1743  0F1B  01C8               	clrf	??_time_display_screen+2
  1744  0F1C  0847               	movf	??_time_display_screen+1,w
  1745  0F1D  00F5               	movwf	___awdiv@dividend
  1746  0F1E  0848               	movf	??_time_display_screen+2,w
  1747  0F1F  00F6               	movwf	___awdiv@dividend+1
  1748  0F20  120A  158A  2692  120A  158A  	fcall	___awdiv
  1749  0F25  0873               	movf	?___awdiv,w
  1750  0F26  3E30               	addlw	48
  1751  0F27  120A  158A  24D9  120A  158A  	fcall	_clcd_putch
  1752  0F2C                     l2679:
  1753                           
  1754                           ;main.c: 340:      {
  1755  0F2C  308A               	movlw	138
  1756  0F2D  1283               	bcf	3,5	;RP0=0, select bank0
  1757  0F2E  1303               	bcf	3,6	;RP1=0, select bank0
  1758  0F2F  00C6               	movwf	??_time_display_screen
  1759  0F30  0846               	movf	??_time_display_screen,w
  1760  0F31  00C4               	movwf	clcd_putch@addr
  1761  0F32  300A               	movlw	10
  1762  0F33  00BE               	movwf	___awmod@divisor
  1763  0F34  3000               	movlw	0
  1764  0F35  00BF               	movwf	___awmod@divisor+1
  1765  0F36  0834               	movf	_min,w
  1766  0F37  00C7               	movwf	??_time_display_screen+1
  1767  0F38  01C8               	clrf	??_time_display_screen+2
  1768  0F39  0847               	movf	??_time_display_screen+1,w
  1769  0F3A  00C0               	movwf	___awmod@dividend
  1770  0F3B  0848               	movf	??_time_display_screen+2,w
  1771  0F3C  00C1               	movwf	___awmod@dividend+1
  1772  0F3D  120A  158A  25D4  120A  158A  	fcall	___awmod
  1773  0F42  1283               	bcf	3,5	;RP0=0, select bank0
  1774  0F43  1303               	bcf	3,6	;RP1=0, select bank0
  1775  0F44  083E               	movf	?___awmod,w
  1776  0F45  3E30               	addlw	48
  1777  0F46  120A  158A  24D9  120A  158A  	fcall	_clcd_putch
  1778  0F4B                     l2681:
  1779                           
  1780                           ;main.c: 344:          RC2 = 0;
  1781  0F4B  308B               	movlw	139
  1782  0F4C  1283               	bcf	3,5	;RP0=0, select bank0
  1783  0F4D  1303               	bcf	3,6	;RP1=0, select bank0
  1784  0F4E  00C6               	movwf	??_time_display_screen
  1785  0F4F  0846               	movf	??_time_display_screen,w
  1786  0F50  00C4               	movwf	clcd_putch@addr
  1787  0F51  303A               	movlw	58
  1788  0F52  120A  158A  24D9  120A  158A  	fcall	_clcd_putch
  1789  0F57                     l2683:
  1790                           
  1791                           ;main.c: 348:          clear_clcd();
  1792  0F57  308C               	movlw	140
  1793  0F58  1283               	bcf	3,5	;RP0=0, select bank0
  1794  0F59  1303               	bcf	3,6	;RP1=0, select bank0
  1795  0F5A  00C6               	movwf	??_time_display_screen
  1796  0F5B  0846               	movf	??_time_display_screen,w
  1797  0F5C  00C4               	movwf	clcd_putch@addr
  1798  0F5D  300A               	movlw	10
  1799  0F5E  00F3               	movwf	___awdiv@divisor
  1800  0F5F  3000               	movlw	0
  1801  0F60  00F4               	movwf	___awdiv@divisor+1
  1802  0F61  0835               	movf	_sec,w
  1803  0F62  00C7               	movwf	??_time_display_screen+1
  1804  0F63  01C8               	clrf	??_time_display_screen+2
  1805  0F64  0847               	movf	??_time_display_screen+1,w
  1806  0F65  00F5               	movwf	___awdiv@dividend
  1807  0F66  0848               	movf	??_time_display_screen+2,w
  1808  0F67  00F6               	movwf	___awdiv@dividend+1
  1809  0F68  120A  158A  2692  120A  158A  	fcall	___awdiv
  1810  0F6D  0873               	movf	?___awdiv,w
  1811  0F6E  3E30               	addlw	48
  1812  0F6F  120A  158A  24D9  120A  158A  	fcall	_clcd_putch
  1813  0F74                     l2685:
  1814                           
  1815                           ;main.c: 349:          operation_mode = 0x01 ;
  1816  0F74  308D               	movlw	141
  1817  0F75  1283               	bcf	3,5	;RP0=0, select bank0
  1818  0F76  1303               	bcf	3,6	;RP1=0, select bank0
  1819  0F77  00C6               	movwf	??_time_display_screen
  1820  0F78  0846               	movf	??_time_display_screen,w
  1821  0F79  00C4               	movwf	clcd_putch@addr
  1822  0F7A  300A               	movlw	10
  1823  0F7B  00BE               	movwf	___awmod@divisor
  1824  0F7C  3000               	movlw	0
  1825  0F7D  00BF               	movwf	___awmod@divisor+1
  1826  0F7E  0835               	movf	_sec,w
  1827  0F7F  00C7               	movwf	??_time_display_screen+1
  1828  0F80  01C8               	clrf	??_time_display_screen+2
  1829  0F81  0847               	movf	??_time_display_screen+1,w
  1830  0F82  00C0               	movwf	___awmod@dividend
  1831  0F83  0848               	movf	??_time_display_screen+2,w
  1832  0F84  00C1               	movwf	___awmod@dividend+1
  1833  0F85  120A  158A  25D4  120A  158A  	fcall	___awmod
  1834  0F8A  1283               	bcf	3,5	;RP0=0, select bank0
  1835  0F8B  1303               	bcf	3,6	;RP1=0, select bank0
  1836  0F8C  083E               	movf	?___awmod,w
  1837  0F8D  3E30               	addlw	48
  1838  0F8E  120A  158A  24D9  120A  158A  	fcall	_clcd_putch
  1839  0F93                     l2687:
  1840                           
  1841                           ;main.c: 353: }
  1842  0F93  3067               	movlw	low (STR_16| (0+32768))
  1843  0F94  1283               	bcf	3,5	;RP0=0, select bank0
  1844  0F95  1303               	bcf	3,6	;RP1=0, select bank0
  1845  0F96  00BA               	movwf	clcd_print@str
  1846  0F97  3086               	movlw	high (STR_16| (0+32768))
  1847  0F98  00BB               	movwf	clcd_print@str+1
  1848  0F99  30C0               	movlw	192
  1849  0F9A  00C6               	movwf	??_time_display_screen
  1850  0F9B  0846               	movf	??_time_display_screen,w
  1851  0F9C  00BC               	movwf	clcd_print@addr
  1852  0F9D  120A  158A  2534  120A  158A  	fcall	_clcd_print
  1853  0FA2                     l2689:
  1854                           
  1855                           ;main.c: 354: 
  1856  0FA2  30D0               	movlw	low (STR_17| (0+32768))
  1857  0FA3  1283               	bcf	3,5	;RP0=0, select bank0
  1858  0FA4  1303               	bcf	3,6	;RP1=0, select bank0
  1859  0FA5  00BA               	movwf	clcd_print@str
  1860  0FA6  3086               	movlw	high (STR_17| (0+32768))
  1861  0FA7  00BB               	movwf	clcd_print@str+1
  1862  0FA8  3090               	movlw	144
  1863  0FA9  00C6               	movwf	??_time_display_screen
  1864  0FAA  0846               	movf	??_time_display_screen,w
  1865  0FAB  00BC               	movwf	clcd_print@addr
  1866  0FAC  120A  158A  2534  120A  158A  	fcall	_clcd_print
  1867  0FB1                     l2691:
  1868                           
  1869                           ;main.c: 355: void set_temp (unsigned char key)
  1870  0FB1  30F1               	movlw	low (STR_18| (0+32768))
  1871  0FB2  1283               	bcf	3,5	;RP0=0, select bank0
  1872  0FB3  1303               	bcf	3,6	;RP1=0, select bank0
  1873  0FB4  00BA               	movwf	clcd_print@str
  1874  0FB5  3086               	movlw	high (STR_18| (0+32768))
  1875  0FB6  00BB               	movwf	clcd_print@str+1
  1876  0FB7  30D0               	movlw	208
  1877  0FB8  00C6               	movwf	??_time_display_screen
  1878  0FB9  0846               	movf	??_time_display_screen,w
  1879  0FBA  00BC               	movwf	clcd_print@addr
  1880  0FBB  120A  158A  2534  120A  158A  	fcall	_clcd_print
  1881  0FC0                     l2693:
  1882                           
  1883                           ;main.c: 357:     static int wait, blink , key_count ;
  1884  0FC0  1283               	bcf	3,5	;RP0=0, select bank0
  1885  0FC1  1303               	bcf	3,6	;RP1=0, select bank0
  1886  0FC2  0835               	movf	_sec,w
  1887  0FC3  1D03               	btfss	3,2
  1888  0FC4  2FC6               	goto	u2471
  1889  0FC5  2FC7               	goto	u2470
  1890  0FC6                     u2471:
  1891  0FC6  2FFF               	goto	l157
  1892  0FC7                     u2470:
  1893  0FC7                     l2695:
  1894  0FC7  0834               	movf	_min,w
  1895  0FC8  1D03               	btfss	3,2
  1896  0FC9  2FCB               	goto	u2481
  1897  0FCA  2FCC               	goto	u2480
  1898  0FCB                     u2481:
  1899  0FCB  2FFF               	goto	l157
  1900  0FCC                     u2480:
  1901  0FCC                     l2697:
  1902                           
  1903                           ;main.c: 358:     static char temp_arr[4];;main.c: 359:     if (reset_flag == 0x11)
  1904  0FCC  120A  118A  27F1  120A  158A  	fcall	_clear_clcd
  1905  0FD1                     l2699:
  1906                           
  1907                           ;main.c: 360:     {
  1908  0FD1  30C6               	movlw	low (STR_19| (0+32768))
  1909  0FD2  1283               	bcf	3,5	;RP0=0, select bank0
  1910  0FD3  1303               	bcf	3,6	;RP1=0, select bank0
  1911  0FD4  00BA               	movwf	clcd_print@str
  1912  0FD5  3086               	movlw	high (STR_19| (0+32768))
  1913  0FD6  00BB               	movwf	clcd_print@str+1
  1914  0FD7  30C0               	movlw	192
  1915  0FD8  00C6               	movwf	??_time_display_screen
  1916  0FD9  0846               	movf	??_time_display_screen,w
  1917  0FDA  00BC               	movwf	clcd_print@addr
  1918  0FDB  120A  158A  2534  120A  158A  	fcall	_clcd_print
  1919  0FE0                     l2701:
  1920                           
  1921                           ;main.c: 361:         key = 0xFF;
  1922  0FE0  1283               	bcf	3,5	;RP0=0, select bank0
  1923  0FE1  1303               	bcf	3,6	;RP1=0, select bank0
  1924  0FE2  1112               	bcf	18,2	;volatile
  1925  0FE3                     l2703:
  1926                           
  1927                           ;main.c: 362:         temp = 0;
  1928  0FE3  1107               	bcf	7,2	;volatile
  1929  0FE4                     l2705:
  1930                           
  1931                           ;main.c: 363:         wait = 15;
  1932  0FE4  1487               	bsf	7,1	;volatile
  1933  0FE5                     l2707:
  1934                           
  1935                           ;main.c: 364:         blink = 0;
  1936  0FE5  304D               	movlw	77
  1937  0FE6  1283               	bcf	3,5	;RP0=0, select bank0
  1938  0FE7  1303               	bcf	3,6	;RP1=0, select bank0
  1939  0FE8  00C8               	movwf	??_time_display_screen+2
  1940  0FE9  3019               	movlw	25
  1941  0FEA  00C7               	movwf	??_time_display_screen+1
  1942  0FEB  304F               	movlw	79
  1943  0FEC  00C6               	movwf	??_time_display_screen
  1944  0FED                     u2687:
  1945  0FED  0BC6               	decfsz	??_time_display_screen,f
  1946  0FEE  2FED               	goto	u2687
  1947  0FEF  0BC7               	decfsz	??_time_display_screen+1,f
  1948  0FF0  2FED               	goto	u2687
  1949  0FF1  0BC8               	decfsz	??_time_display_screen+2,f
  1950  0FF2  2FED               	goto	u2687
  1951  0FF3                     l2709:
  1952                           
  1953                           ;main.c: 365:         key_count = 0;
  1954  0FF3  1283               	bcf	3,5	;RP0=0, select bank0
  1955  0FF4  1303               	bcf	3,6	;RP1=0, select bank0
  1956  0FF5  1087               	bcf	7,1	;volatile
  1957  0FF6                     l2711:
  1958                           
  1959                           ;main.c: 366:         clcd_print(" SET TEMP ( C)", (0x80 + 0));
  1960  0FF6  120A  118A  27F1  120A  158A  	fcall	_clear_clcd
  1961  0FFB                     l2713:
  1962                           
  1963                           ;main.c: 367:         clcd_putch(0xDF, (0x80 + 11));
  1964  0FFB  1283               	bcf	3,5	;RP0=0, select bank0
  1965  0FFC  1303               	bcf	3,6	;RP1=0, select bank0
  1966  0FFD  01B2               	clrf	_operation_mode
  1967  0FFE  0AB2               	incf	_operation_mode,f
  1968  0FFF                     l157:
  1969  0FFF  0008               	return
  1970  1000                     __end_of_time_display_screen:
  1971                           
  1972                           	psect	text2
  1973  05B0                     __ptext2:	
  1974 ;; *************** function _door_status_check *****************
  1975 ;; Defined at:
  1976 ;;		line 303 in file "main.c"
  1977 ;; Parameters:    Size  Location     Type
  1978 ;;		None
  1979 ;; Auto vars:     Size  Location     Type
  1980 ;;		None
  1981 ;; Return value:  Size  Location     Type
  1982 ;;                  1    wreg      void 
  1983 ;; Registers used:
  1984 ;;		wreg, fsr0l, fsr0h, status,2, status,0, btemp+1, pclath, cstack
  1985 ;; Tracked objects:
  1986 ;;		On entry : 0/0
  1987 ;;		On exit  : 0/0
  1988 ;;		Unchanged: 0/0
  1989 ;; Data sizes:     COMMON   BANK0   BANK1   BANK3   BANK2
  1990 ;;      Params:         0       0       0       0       0
  1991 ;;      Locals:         0       0       0       0       0
  1992 ;;      Temps:          1       0       0       0       0
  1993 ;;      Totals:         1       0       0       0       0
  1994 ;;Total ram usage:        1 bytes
  1995 ;; Hardware stack levels used: 1
  1996 ;; Hardware stack levels required when called: 3
  1997 ;; This function calls:
  1998 ;;		_clcd_print
  1999 ;;		_clear_clcd
  2000 ;; This function is called by:
  2001 ;;		_time_display_screen
  2002 ;; This function uses a non-reentrant model
  2003 ;;
  2004                           
  2005                           
  2006                           ;psect for function _door_status_check
  2007  05B0                     _door_status_check:
  2008  05B0                     l2427:	
  2009                           ;incstack = 0
  2010                           ; Regs used in _door_status_check: [wreg-fsr0h+status,2+status,0+btemp+1+pclath+cstack]
  2011                           
  2012                           
  2013                           ;main.c: 306:         clear_clcd();
  2014  05B0  1283               	bcf	3,5	;RP0=0, select bank0
  2015  05B1  1303               	bcf	3,6	;RP1=0, select bank0
  2016  05B2  1986               	btfsc	6,3	;volatile
  2017  05B3  2DB5               	goto	u2061
  2018  05B4  2DB6               	goto	u2060
  2019  05B5                     u2061:
  2020  05B5  2DEA               	goto	l153
  2021  05B6                     u2060:
  2022  05B6                     l2429:
  2023                           
  2024                           ;main.c: 307:     };main.c: 309: 
  2025  05B6  1112               	bcf	18,2	;volatile
  2026                           
  2027                           ;main.c: 310: void time_display_screen (void)
  2028  05B7  1107               	bcf	7,2	;volatile
  2029                           
  2030                           ;main.c: 311: {
  2031  05B8  1487               	bsf	7,1	;volatile
  2032  05B9                     l2431:
  2033                           
  2034                           ;main.c: 312: 
  2035  05B9  120A  118A  27F1  120A  118A  	fcall	_clear_clcd
  2036  05BE                     l2433:
  2037                           
  2038                           ;main.c: 313:      door_status_check();
  2039  05BE  3045               	movlw	low (STR_13| (0+32768))
  2040  05BF  1283               	bcf	3,5	;RP0=0, select bank0
  2041  05C0  1303               	bcf	3,6	;RP1=0, select bank0
  2042  05C1  00BA               	movwf	clcd_print@str
  2043  05C2  3086               	movlw	high (STR_13| (0+32768))
  2044  05C3  00BB               	movwf	clcd_print@str+1
  2045  05C4  30C0               	movlw	192
  2046  05C5  00F8               	movwf	??_door_status_check
  2047  05C6  0878               	movf	??_door_status_check,w
  2048  05C7  00BC               	movwf	clcd_print@addr
  2049  05C8  120A  158A  2534  120A  118A  	fcall	_clcd_print
  2050  05CD                     l2435:
  2051                           
  2052                           ;main.c: 314: 
  2053  05CD  3077               	movlw	low (STR_14| (0+32768))
  2054  05CE  1283               	bcf	3,5	;RP0=0, select bank0
  2055  05CF  1303               	bcf	3,6	;RP1=0, select bank0
  2056  05D0  00BA               	movwf	clcd_print@str
  2057  05D1  3086               	movlw	high (STR_14| (0+32768))
  2058  05D2  00BB               	movwf	clcd_print@str+1
  2059  05D3  3090               	movlw	144
  2060  05D4  00F8               	movwf	??_door_status_check
  2061  05D5  0878               	movf	??_door_status_check,w
  2062  05D6  00BC               	movwf	clcd_print@addr
  2063  05D7  120A  158A  2534  120A  118A  	fcall	_clcd_print
  2064  05DC                     l150:	
  2065                           ;main.c: 318: ;main.c: 320: 
  2066                           
  2067                           
  2068                           ;main.c: 317: 
  2069  05DC  1283               	bcf	3,5	;RP0=0, select bank0
  2070  05DD  1303               	bcf	3,6	;RP1=0, select bank0
  2071  05DE  1D86               	btfss	6,3	;volatile
  2072  05DF  2DE1               	goto	u2071
  2073  05E0  2DE2               	goto	u2070
  2074  05E1                     u2071:
  2075  05E1  2DDC               	goto	l150
  2076  05E2                     u2070:
  2077  05E2                     l152:
  2078                           
  2079                           ;main.c: 321:      clcd_putch(min/10 + '0', (0x80 + 9));
  2080  05E2  1087               	bcf	7,1	;volatile
  2081                           
  2082                           ;main.c: 322:      clcd_putch(min%10 + '0', (0x80 + 10));
  2083  05E3  1512               	bsf	18,2	;volatile
  2084                           
  2085                           ;main.c: 323: 
  2086  05E4  1507               	bsf	7,2	;volatile
  2087  05E5                     l2437:
  2088                           
  2089                           ;main.c: 324: 
  2090  05E5  120A  118A  27F1  120A  118A  	fcall	_clear_clcd
  2091  05EA                     l153:
  2092  05EA  0008               	return
  2093  05EB                     __end_of_door_status_check:
  2094                           
  2095                           	psect	text3
  2096  0023                     __ptext3:	
  2097 ;; *************** function _set_time *****************
  2098 ;; Defined at:
  2099 ;;		line 210 in file "main.c"
  2100 ;; Parameters:    Size  Location     Type
  2101 ;;  key             1    wreg     unsigned char 
  2102 ;; Auto vars:     Size  Location     Type
  2103 ;;  key             1   15[BANK0 ] unsigned char 
  2104 ;; Return value:  Size  Location     Type
  2105 ;;                  1    wreg      void 
  2106 ;; Registers used:
  2107 ;;		wreg, fsr0l, fsr0h, status,2, status,0, btemp+1, pclath, cstack
  2108 ;; Tracked objects:
  2109 ;;		On entry : 0/0
  2110 ;;		On exit  : 0/0
  2111 ;;		Unchanged: 0/0
  2112 ;; Data sizes:     COMMON   BANK0   BANK1   BANK3   BANK2
  2113 ;;      Params:         0       0       0       0       0
  2114 ;;      Locals:         0       1       0       0       0
  2115 ;;      Temps:          0       3       0       0       0
  2116 ;;      Totals:         0       4       0       0       0
  2117 ;;Total ram usage:        4 bytes
  2118 ;; Hardware stack levels used: 1
  2119 ;; Hardware stack levels required when called: 3
  2120 ;; This function calls:
  2121 ;;		___awdiv
  2122 ;;		___awmod
  2123 ;;		___bmul
  2124 ;;		_clcd_print
  2125 ;;		_clcd_putch
  2126 ;;		_clear_clcd
  2127 ;; This function is called by:
  2128 ;;		_main
  2129 ;; This function uses a non-reentrant model
  2130 ;;
  2131                           
  2132                           
  2133                           ;psect for function _set_time
  2134  0023                     _set_time:
  2135                           
  2136                           ;incstack = 0
  2137                           ; Regs used in _set_time: [wreg-fsr0h+status,2+status,0+btemp+1+pclath+cstack]
  2138                           ;set_time@key stored from wreg
  2139  0023  1283               	bcf	3,5	;RP0=0, select bank0
  2140  0024  1303               	bcf	3,6	;RP1=0, select bank0
  2141  0025  00C9               	movwf	set_time@key
  2142  0026                     l2507:
  2143                           
  2144                           ;main.c: 210: ;main.c: 211: ;main.c: 212: ;main.c: 213: 
  2145  0026  3010               	movlw	16
  2146  0027  0631               	xorwf	_reset_flag,w
  2147  0028  1D03               	btfss	3,2
  2148  0029  282B               	goto	u2191
  2149  002A  282C               	goto	u2190
  2150  002B                     u2191:
  2151  002B  2873               	goto	l2531
  2152  002C                     u2190:
  2153  002C                     l2509:
  2154                           
  2155                           ;main.c: 214:     if(key!= '*' && key!= '#' && key!= 0xFF);main.c: 215:     {
  2156  002C  300F               	movlw	15
  2157  002D  00AE               	movwf	set_time@wait
  2158  002E  3000               	movlw	0
  2159  002F  00AF               	movwf	set_time@wait+1
  2160  0030                     l2511:
  2161                           
  2162                           ;main.c: 216:         key_count++;
  2163  0030  01AC               	clrf	set_time@blink
  2164  0031  01AD               	clrf	set_time@blink+1
  2165  0032                     l2513:
  2166                           
  2167                           ;main.c: 217:         if(key_count <= 2)
  2168  0032  01AA               	clrf	set_time@key_count
  2169  0033  01AB               	clrf	set_time@key_count+1
  2170  0034                     l2515:
  2171                           
  2172                           ;main.c: 218:         {
  2173  0034  01B5               	clrf	_sec
  2174  0035                     l2517:
  2175                           
  2176                           ;main.c: 219:             sec = sec*10 + key;
  2177  0035  01B4               	clrf	_min
  2178  0036                     l2519:
  2179                           
  2180                           ;main.c: 220:             blink_pos = 0;
  2181  0036  01A8               	clrf	set_time@blink_pos
  2182  0037  01A9               	clrf	set_time@blink_pos+1
  2183  0038                     l2521:
  2184                           
  2185                           ;main.c: 221:         }
  2186  0038  30FF               	movlw	255
  2187  0039  00C6               	movwf	??_set_time
  2188  003A  0846               	movf	??_set_time,w
  2189  003B  00C9               	movwf	set_time@key
  2190  003C                     l2523:
  2191                           
  2192                           ;main.c: 222:         else if(key_count > 2 && key_count <= 4)
  2193  003C  3000               	movlw	low (STR_8| (0+32768))
  2194  003D  00BA               	movwf	clcd_print@str
  2195  003E  3086               	movlw	high (STR_8| (0+32768))
  2196  003F  00BB               	movwf	clcd_print@str+1
  2197  0040  3080               	movlw	128
  2198  0041  00C6               	movwf	??_set_time
  2199  0042  0846               	movf	??_set_time,w
  2200  0043  00BC               	movwf	clcd_print@addr
  2201  0044  120A  158A  2534  120A  118A  	fcall	_clcd_print
  2202  0049                     l2525:
  2203                           
  2204                           ;main.c: 223:         {
  2205  0049  3001               	movlw	low (STR_9| (0+32768))
  2206  004A  1283               	bcf	3,5	;RP0=0, select bank0
  2207  004B  1303               	bcf	3,6	;RP1=0, select bank0
  2208  004C  00BA               	movwf	clcd_print@str
  2209  004D  3087               	movlw	high (STR_9| (0+32768))
  2210  004E  00BB               	movwf	clcd_print@str+1
  2211  004F  30C0               	movlw	192
  2212  0050  00C6               	movwf	??_set_time
  2213  0051  0846               	movf	??_set_time,w
  2214  0052  00BC               	movwf	clcd_print@addr
  2215  0053  120A  158A  2534  120A  118A  	fcall	_clcd_print
  2216  0058                     l2527:
  2217                           
  2218                           ;main.c: 224:             min = min*10 + key;
  2219  0058  30C8               	movlw	200
  2220  0059  1283               	bcf	3,5	;RP0=0, select bank0
  2221  005A  1303               	bcf	3,6	;RP1=0, select bank0
  2222  005B  00C6               	movwf	??_set_time
  2223  005C  0846               	movf	??_set_time,w
  2224  005D  00C4               	movwf	clcd_putch@addr
  2225  005E  303A               	movlw	58
  2226  005F  120A  158A  24D9  120A  118A  	fcall	_clcd_putch
  2227  0064                     l2529:
  2228                           
  2229                           ;main.c: 225:             blink_pos = 1;
  2230  0064  3056               	movlw	low (STR_10| (0+32768))
  2231  0065  1283               	bcf	3,5	;RP0=0, select bank0
  2232  0066  1303               	bcf	3,6	;RP1=0, select bank0
  2233  0067  00BA               	movwf	clcd_print@str
  2234  0068  3086               	movlw	high (STR_10| (0+32768))
  2235  0069  00BB               	movwf	clcd_print@str+1
  2236  006A  30D0               	movlw	208
  2237  006B  00C6               	movwf	??_set_time
  2238  006C  0846               	movf	??_set_time,w
  2239  006D  00BC               	movwf	clcd_print@addr
  2240  006E  120A  158A  2534  120A  118A  	fcall	_clcd_print
  2241  0073                     l2531:
  2242                           
  2243                           ;main.c: 232:          if(key_count <= 2)
  2244  0073  302A               	movlw	42
  2245  0074  1283               	bcf	3,5	;RP0=0, select bank0
  2246  0075  1303               	bcf	3,6	;RP1=0, select bank0
  2247  0076  0649               	xorwf	set_time@key,w
  2248  0077  1903               	btfsc	3,2
  2249  0078  287A               	goto	u2201
  2250  0079  287B               	goto	u2200
  2251  007A                     u2201:
  2252  007A  28E2               	goto	l2553
  2253  007B                     u2200:
  2254  007B                     l2533:
  2255  007B  3023               	movlw	35
  2256  007C  0649               	xorwf	set_time@key,w
  2257  007D  1903               	btfsc	3,2
  2258  007E  2880               	goto	u2211
  2259  007F  2881               	goto	u2210
  2260  0080                     u2211:
  2261  0080  28E2               	goto	l2553
  2262  0081                     u2210:
  2263  0081                     l2535:
  2264  0081  0A49               	incf	set_time@key,w
  2265  0082  1903               	btfsc	3,2
  2266  0083  2885               	goto	u2221
  2267  0084  2886               	goto	u2220
  2268  0085                     u2221:
  2269  0085  28E2               	goto	l2553
  2270  0086                     u2220:
  2271  0086                     l2537:
  2272                           
  2273                           ;main.c: 233:          {;main.c: 234:              sec = 0;
  2274  0086  3001               	movlw	1
  2275  0087  07AA               	addwf	set_time@key_count,f
  2276  0088  1803               	skipnc
  2277  0089  0AAB               	incf	set_time@key_count+1,f
  2278  008A  3000               	movlw	0
  2279  008B  07AB               	addwf	set_time@key_count+1,f
  2280  008C                     l2539:
  2281                           
  2282                           ;main.c: 235:              key_count = 0;
  2283  008C  082B               	movf	set_time@key_count+1,w
  2284  008D  3A80               	xorlw	128
  2285  008E  00FF               	movwf	btemp+1
  2286  008F  3080               	movlw	128
  2287  0090  027F               	subwf	btemp+1,w
  2288  0091  1D03               	skipz
  2289  0092  2895               	goto	u2235
  2290  0093  3003               	movlw	3
  2291  0094  022A               	subwf	set_time@key_count,w
  2292  0095                     u2235:
  2293  0095  1803               	skipnc
  2294  0096  2898               	goto	u2231
  2295  0097  2899               	goto	u2230
  2296  0098                     u2231:
  2297  0098  28AE               	goto	l2545
  2298  0099                     u2230:
  2299  0099                     l2541:
  2300                           
  2301                           ;main.c: 236:          };main.c: 237:          else if (key_count >2 && key_count <= 4)
  2302  0099  300A               	movlw	10
  2303  009A  1283               	bcf	3,5	;RP0=0, select bank0
  2304  009B  1303               	bcf	3,6	;RP1=0, select bank0
  2305  009C  00C6               	movwf	??_set_time
  2306  009D  0846               	movf	??_set_time,w
  2307  009E  00F3               	movwf	___bmul@multiplicand
  2308  009F  0835               	movf	_sec,w
  2309  00A0  120A  118A  25EB  120A  118A  	fcall	___bmul
  2310  00A5  1283               	bcf	3,5	;RP0=0, select bank0
  2311  00A6  1303               	bcf	3,6	;RP1=0, select bank0
  2312  00A7  0749               	addwf	set_time@key,w
  2313  00A8  00C7               	movwf	??_set_time+1
  2314  00A9  0847               	movf	??_set_time+1,w
  2315  00AA  00B5               	movwf	_sec
  2316  00AB                     l2543:
  2317                           
  2318                           ;main.c: 238:          {
  2319  00AB  01A8               	clrf	set_time@blink_pos
  2320  00AC  01A9               	clrf	set_time@blink_pos+1
  2321                           
  2322                           ;main.c: 239:              min =0;
  2323  00AD  28E2               	goto	l2553
  2324  00AE                     l2545:
  2325  00AE  1283               	bcf	3,5	;RP0=0, select bank0
  2326  00AF  1303               	bcf	3,6	;RP1=0, select bank0
  2327  00B0  082B               	movf	set_time@key_count+1,w
  2328  00B1  3A80               	xorlw	128
  2329  00B2  00FF               	movwf	btemp+1
  2330  00B3  3080               	movlw	128
  2331  00B4  027F               	subwf	btemp+1,w
  2332  00B5  1D03               	skipz
  2333  00B6  28B9               	goto	u2245
  2334  00B7  3003               	movlw	3
  2335  00B8  022A               	subwf	set_time@key_count,w
  2336  00B9                     u2245:
  2337  00B9  1C03               	skipc
  2338  00BA  28BC               	goto	u2241
  2339  00BB  28BD               	goto	u2240
  2340  00BC                     u2241:
  2341  00BC  28E2               	goto	l2553
  2342  00BD                     u2240:
  2343  00BD                     l2547:
  2344  00BD  1283               	bcf	3,5	;RP0=0, select bank0
  2345  00BE  1303               	bcf	3,6	;RP1=0, select bank0
  2346  00BF  082B               	movf	set_time@key_count+1,w
  2347  00C0  3A80               	xorlw	128
  2348  00C1  00FF               	movwf	btemp+1
  2349  00C2  3080               	movlw	128
  2350  00C3  027F               	subwf	btemp+1,w
  2351  00C4  1D03               	skipz
  2352  00C5  28C8               	goto	u2255
  2353  00C6  3005               	movlw	5
  2354  00C7  022A               	subwf	set_time@key_count,w
  2355  00C8                     u2255:
  2356  00C8  1803               	skipnc
  2357  00C9  28CB               	goto	u2251
  2358  00CA  28CC               	goto	u2250
  2359  00CB                     u2251:
  2360  00CB  28E2               	goto	l2553
  2361  00CC                     u2250:
  2362  00CC                     l2549:
  2363                           
  2364                           ;main.c: 241:          };main.c: 242:     }
  2365  00CC  300A               	movlw	10
  2366  00CD  1283               	bcf	3,5	;RP0=0, select bank0
  2367  00CE  1303               	bcf	3,6	;RP1=0, select bank0
  2368  00CF  00C6               	movwf	??_set_time
  2369  00D0  0846               	movf	??_set_time,w
  2370  00D1  00F3               	movwf	___bmul@multiplicand
  2371  00D2  0834               	movf	_min,w
  2372  00D3  120A  118A  25EB  120A  118A  	fcall	___bmul
  2373  00D8  1283               	bcf	3,5	;RP0=0, select bank0
  2374  00D9  1303               	bcf	3,6	;RP1=0, select bank0
  2375  00DA  0749               	addwf	set_time@key,w
  2376  00DB  00C7               	movwf	??_set_time+1
  2377  00DC  0847               	movf	??_set_time+1,w
  2378  00DD  00B4               	movwf	_min
  2379  00DE                     l2551:
  2380                           
  2381                           ;main.c: 243: 
  2382  00DE  3001               	movlw	1
  2383  00DF  00A8               	movwf	set_time@blink_pos
  2384  00E0  3000               	movlw	0
  2385  00E1  00A9               	movwf	set_time@blink_pos+1
  2386  00E2                     l2553:
  2387                           
  2388                           ;main.c: 247:         operation_mode = 0x05;
  2389  00E2  302A               	movlw	42
  2390  00E3  1283               	bcf	3,5	;RP0=0, select bank0
  2391  00E4  1303               	bcf	3,6	;RP1=0, select bank0
  2392  00E5  0649               	xorwf	set_time@key,w
  2393  00E6  1D03               	btfss	3,2
  2394  00E7  28E9               	goto	u2261
  2395  00E8  28EA               	goto	u2260
  2396  00E9                     u2261:
  2397  00E9  2922               	goto	l2567
  2398  00EA                     u2260:
  2399  00EA                     l2555:
  2400                           
  2401                           ;main.c: 248:         RC2 = 1;;main.c: 250:         TMR2ON = 1 ;
  2402  00EA  082B               	movf	set_time@key_count+1,w
  2403  00EB  3A80               	xorlw	128
  2404  00EC  00FF               	movwf	btemp+1
  2405  00ED  3080               	movlw	128
  2406  00EE  027F               	subwf	btemp+1,w
  2407  00EF  1D03               	skipz
  2408  00F0  28F3               	goto	u2275
  2409  00F1  3003               	movlw	3
  2410  00F2  022A               	subwf	set_time@key_count,w
  2411  00F3                     u2275:
  2412  00F3  1803               	skipnc
  2413  00F4  28F6               	goto	u2271
  2414  00F5  28F7               	goto	u2270
  2415  00F6                     u2271:
  2416  00F6  28FD               	goto	l2559
  2417  00F7                     u2270:
  2418  00F7                     l2557:
  2419                           
  2420                           ;main.c: 251:     };main.c: 252: 
  2421  00F7  1283               	bcf	3,5	;RP0=0, select bank0
  2422  00F8  1303               	bcf	3,6	;RP1=0, select bank0
  2423  00F9  01B5               	clrf	_sec
  2424                           
  2425                           ;main.c: 253: 
  2426  00FA  01AA               	clrf	set_time@key_count
  2427  00FB  01AB               	clrf	set_time@key_count+1
  2428                           
  2429                           ;main.c: 254:     if(wait ++ == 15)
  2430  00FC  2922               	goto	l2567
  2431  00FD                     l2559:
  2432  00FD  1283               	bcf	3,5	;RP0=0, select bank0
  2433  00FE  1303               	bcf	3,6	;RP1=0, select bank0
  2434  00FF  082B               	movf	set_time@key_count+1,w
  2435  0100  3A80               	xorlw	128
  2436  0101  00FF               	movwf	btemp+1
  2437  0102  3080               	movlw	128
  2438  0103  027F               	subwf	btemp+1,w
  2439  0104  1D03               	skipz
  2440  0105  2908               	goto	u2285
  2441  0106  3003               	movlw	3
  2442  0107  022A               	subwf	set_time@key_count,w
  2443  0108                     u2285:
  2444  0108  1C03               	skipc
  2445  0109  290B               	goto	u2281
  2446  010A  290C               	goto	u2280
  2447  010B                     u2281:
  2448  010B  2922               	goto	l2567
  2449  010C                     u2280:
  2450  010C                     l2561:
  2451  010C  1283               	bcf	3,5	;RP0=0, select bank0
  2452  010D  1303               	bcf	3,6	;RP1=0, select bank0
  2453  010E  082B               	movf	set_time@key_count+1,w
  2454  010F  3A80               	xorlw	128
  2455  0110  00FF               	movwf	btemp+1
  2456  0111  3080               	movlw	128
  2457  0112  027F               	subwf	btemp+1,w
  2458  0113  1D03               	skipz
  2459  0114  2917               	goto	u2295
  2460  0115  3005               	movlw	5
  2461  0116  022A               	subwf	set_time@key_count,w
  2462  0117                     u2295:
  2463  0117  1803               	skipnc
  2464  0118  291A               	goto	u2291
  2465  0119  291B               	goto	u2290
  2466  011A                     u2291:
  2467  011A  2922               	goto	l2567
  2468  011B                     u2290:
  2469  011B                     l2563:
  2470                           
  2471                           ;main.c: 256:         wait = 0;;main.c: 257:         blink = !blink;
  2472  011B  1283               	bcf	3,5	;RP0=0, select bank0
  2473  011C  1303               	bcf	3,6	;RP1=0, select bank0
  2474  011D  01B4               	clrf	_min
  2475  011E                     l2565:
  2476                           
  2477                           ;main.c: 258:         clcd_putch(sec/10 + '0',(0xC0 + 9));
  2478  011E  3002               	movlw	2
  2479  011F  00AA               	movwf	set_time@key_count
  2480  0120  3000               	movlw	0
  2481  0121  00AB               	movwf	set_time@key_count+1
  2482  0122                     l2567:
  2483                           
  2484                           ;main.c: 262:     }
  2485  0122  3023               	movlw	35
  2486  0123  1283               	bcf	3,5	;RP0=0, select bank0
  2487  0124  1303               	bcf	3,6	;RP1=0, select bank0
  2488  0125  0649               	xorwf	set_time@key,w
  2489  0126  1D03               	btfss	3,2
  2490  0127  2929               	goto	u2301
  2491  0128  292A               	goto	u2300
  2492  0129                     u2301:
  2493  0129  2937               	goto	l2577
  2494  012A                     u2300:
  2495  012A                     l2569:
  2496                           
  2497                           ;main.c: 263: ;main.c: 264:     if(blink)
  2498  012A  120A  118A  27F1  120A  118A  	fcall	_clear_clcd
  2499  012F                     l2571:
  2500                           
  2501                           ;main.c: 265:     {
  2502  012F  3005               	movlw	5
  2503  0130  1283               	bcf	3,5	;RP0=0, select bank0
  2504  0131  1303               	bcf	3,6	;RP1=0, select bank0
  2505  0132  00C6               	movwf	??_set_time
  2506  0133  0846               	movf	??_set_time,w
  2507  0134  00B2               	movwf	_operation_mode
  2508  0135                     l2573:
  2509                           
  2510                           ;main.c: 266:         switch(blink_pos)
  2511  0135  1507               	bsf	7,2	;volatile
  2512  0136                     l2575:
  2513                           
  2514                           ;main.c: 268:             case 0 : clcd_print("  ", (0xC0 + 9));
  2515  0136  1512               	bsf	18,2	;volatile
  2516  0137                     l2577:
  2517                           
  2518                           ;main.c: 272:                        break;
  2519  0137  3001               	movlw	1
  2520  0138  07AE               	addwf	set_time@wait,f
  2521  0139  1803               	skipnc
  2522  013A  0AAF               	incf	set_time@wait+1,f
  2523  013B  3000               	movlw	0
  2524  013C  07AF               	addwf	set_time@wait+1,f
  2525  013D  3010               	movlw	16
  2526  013E  062E               	xorwf	set_time@wait,w
  2527  013F  042F               	iorwf	set_time@wait+1,w
  2528  0140  1D03               	btfss	3,2
  2529  0141  2943               	goto	u2311
  2530  0142  2944               	goto	u2310
  2531  0143                     u2311:
  2532  0143  29CA               	goto	l2591
  2533  0144                     u2310:
  2534  0144                     l2579:
  2535                           
  2536                           ;main.c: 273: ;main.c: 274: 
  2537  0144  01AE               	clrf	set_time@wait
  2538  0145  01AF               	clrf	set_time@wait+1
  2539  0146                     l2581:
  2540                           
  2541                           ;main.c: 275: 
  2542  0146  082C               	movf	set_time@blink,w
  2543  0147  042D               	iorwf	set_time@blink+1,w
  2544  0148  1903               	btfsc	3,2
  2545  0149  294B               	goto	u2321
  2546  014A  294D               	goto	u2320
  2547  014B                     u2321:
  2548  014B  3001               	movlw	1
  2549  014C  294E               	goto	u2330
  2550  014D                     u2320:
  2551  014D  3000               	movlw	0
  2552  014E                     u2330:
  2553  014E  00C6               	movwf	??_set_time
  2554  014F  01C7               	clrf	??_set_time+1
  2555  0150  0846               	movf	??_set_time,w
  2556  0151  00AC               	movwf	set_time@blink
  2557  0152  0847               	movf	??_set_time+1,w
  2558  0153  00AD               	movwf	set_time@blink+1
  2559  0154                     l2583:
  2560                           
  2561                           ;main.c: 276:         }
  2562  0154  30C9               	movlw	201
  2563  0155  00C6               	movwf	??_set_time
  2564  0156  0846               	movf	??_set_time,w
  2565  0157  00C4               	movwf	clcd_putch@addr
  2566  0158  300A               	movlw	10
  2567  0159  00F3               	movwf	___awdiv@divisor
  2568  015A  3000               	movlw	0
  2569  015B  00F4               	movwf	___awdiv@divisor+1
  2570  015C  0835               	movf	_sec,w
  2571  015D  00C7               	movwf	??_set_time+1
  2572  015E  01C8               	clrf	??_set_time+2
  2573  015F  0847               	movf	??_set_time+1,w
  2574  0160  00F5               	movwf	___awdiv@dividend
  2575  0161  0848               	movf	??_set_time+2,w
  2576  0162  00F6               	movwf	___awdiv@dividend+1
  2577  0163  120A  158A  2692  120A  118A  	fcall	___awdiv
  2578  0168  0873               	movf	?___awdiv,w
  2579  0169  3E30               	addlw	48
  2580  016A  120A  158A  24D9  120A  118A  	fcall	_clcd_putch
  2581  016F                     l2585:
  2582                           
  2583                           ;main.c: 277: 
  2584  016F  30CA               	movlw	202
  2585  0170  1283               	bcf	3,5	;RP0=0, select bank0
  2586  0171  1303               	bcf	3,6	;RP1=0, select bank0
  2587  0172  00C6               	movwf	??_set_time
  2588  0173  0846               	movf	??_set_time,w
  2589  0174  00C4               	movwf	clcd_putch@addr
  2590  0175  300A               	movlw	10
  2591  0176  00BE               	movwf	___awmod@divisor
  2592  0177  3000               	movlw	0
  2593  0178  00BF               	movwf	___awmod@divisor+1
  2594  0179  0835               	movf	_sec,w
  2595  017A  00C7               	movwf	??_set_time+1
  2596  017B  01C8               	clrf	??_set_time+2
  2597  017C  0847               	movf	??_set_time+1,w
  2598  017D  00C0               	movwf	___awmod@dividend
  2599  017E  0848               	movf	??_set_time+2,w
  2600  017F  00C1               	movwf	___awmod@dividend+1
  2601  0180  120A  158A  25D4  120A  118A  	fcall	___awmod
  2602  0185  1283               	bcf	3,5	;RP0=0, select bank0
  2603  0186  1303               	bcf	3,6	;RP1=0, select bank0
  2604  0187  083E               	movf	?___awmod,w
  2605  0188  3E30               	addlw	48
  2606  0189  120A  158A  24D9  120A  118A  	fcall	_clcd_putch
  2607  018E                     l2587:
  2608                           
  2609                           ;main.c: 278:     }
  2610  018E  30C6               	movlw	198
  2611  018F  1283               	bcf	3,5	;RP0=0, select bank0
  2612  0190  1303               	bcf	3,6	;RP1=0, select bank0
  2613  0191  00C6               	movwf	??_set_time
  2614  0192  0846               	movf	??_set_time,w
  2615  0193  00C4               	movwf	clcd_putch@addr
  2616  0194  300A               	movlw	10
  2617  0195  00F3               	movwf	___awdiv@divisor
  2618  0196  3000               	movlw	0
  2619  0197  00F4               	movwf	___awdiv@divisor+1
  2620  0198  0834               	movf	_min,w
  2621  0199  00C7               	movwf	??_set_time+1
  2622  019A  01C8               	clrf	??_set_time+2
  2623  019B  0847               	movf	??_set_time+1,w
  2624  019C  00F5               	movwf	___awdiv@dividend
  2625  019D  0848               	movf	??_set_time+2,w
  2626  019E  00F6               	movwf	___awdiv@dividend+1
  2627  019F  120A  158A  2692  120A  118A  	fcall	___awdiv
  2628  01A4  0873               	movf	?___awdiv,w
  2629  01A5  3E30               	addlw	48
  2630  01A6  120A  158A  24D9  120A  118A  	fcall	_clcd_putch
  2631  01AB                     l2589:
  2632                           
  2633                           ;main.c: 279: 
  2634  01AB  30C7               	movlw	199
  2635  01AC  1283               	bcf	3,5	;RP0=0, select bank0
  2636  01AD  1303               	bcf	3,6	;RP1=0, select bank0
  2637  01AE  00C6               	movwf	??_set_time
  2638  01AF  0846               	movf	??_set_time,w
  2639  01B0  00C4               	movwf	clcd_putch@addr
  2640  01B1  300A               	movlw	10
  2641  01B2  00BE               	movwf	___awmod@divisor
  2642  01B3  3000               	movlw	0
  2643  01B4  00BF               	movwf	___awmod@divisor+1
  2644  01B5  0834               	movf	_min,w
  2645  01B6  00C7               	movwf	??_set_time+1
  2646  01B7  01C8               	clrf	??_set_time+2
  2647  01B8  0847               	movf	??_set_time+1,w
  2648  01B9  00C0               	movwf	___awmod@dividend
  2649  01BA  0848               	movf	??_set_time+2,w
  2650  01BB  00C1               	movwf	___awmod@dividend+1
  2651  01BC  120A  158A  25D4  120A  118A  	fcall	___awmod
  2652  01C1  1283               	bcf	3,5	;RP0=0, select bank0
  2653  01C2  1303               	bcf	3,6	;RP1=0, select bank0
  2654  01C3  083E               	movf	?___awmod,w
  2655  01C4  3E30               	addlw	48
  2656  01C5  120A  158A  24D9  120A  118A  	fcall	_clcd_putch
  2657  01CA                     l2591:
  2658                           
  2659                           ;main.c: 282: 
  2660  01CA  1283               	bcf	3,5	;RP0=0, select bank0
  2661  01CB  1303               	bcf	3,6	;RP1=0, select bank0
  2662  01CC  082C               	movf	set_time@blink,w
  2663  01CD  042D               	iorwf	set_time@blink+1,w
  2664  01CE  1903               	btfsc	3,2
  2665  01CF  29D1               	goto	u2341
  2666  01D0  29D2               	goto	u2340
  2667  01D1                     u2341:
  2668  01D1  29FC               	goto	l146
  2669  01D2                     u2340:
  2670  01D2  29EF               	goto	l2601
  2671  01D3                     l2595:
  2672  01D3  3020               	movlw	low ((STR_2+14)| (0+32768))
  2673  01D4  00BA               	movwf	clcd_print@str
  2674  01D5  3086               	movlw	high ((STR_2+14)| (0+32768))
  2675  01D6  00BB               	movwf	clcd_print@str+1
  2676  01D7  30C9               	movlw	201
  2677  01D8  00C6               	movwf	??_set_time
  2678  01D9  0846               	movf	??_set_time,w
  2679  01DA  00BC               	movwf	clcd_print@addr
  2680  01DB  120A  158A  2534  120A  118A  	fcall	_clcd_print
  2681                           
  2682                           ;main.c: 287: 
  2683  01E0  29FC               	goto	l146
  2684  01E1                     l2597:
  2685  01E1  3020               	movlw	low ((STR_2+14)| (0+32768))
  2686  01E2  00BA               	movwf	clcd_print@str
  2687  01E3  3086               	movlw	high ((STR_2+14)| (0+32768))
  2688  01E4  00BB               	movwf	clcd_print@str+1
  2689  01E5  30C6               	movlw	198
  2690  01E6  00C6               	movwf	??_set_time
  2691  01E7  0846               	movf	??_set_time,w
  2692  01E8  00BC               	movwf	clcd_print@addr
  2693  01E9  120A  158A  2534  120A  118A  	fcall	_clcd_print
  2694                           
  2695                           ;main.c: 290: 
  2696  01EE  29FC               	goto	l146
  2697  01EF                     l2601:
  2698                           
  2699                           ; Switch on 2 bytes has been partitioned into a top level switch of size 1, and 1 sub-sw
      +                          itches
  2700                           ; Switch size 1, requested type "simple"
  2701                           ; Number of cases is 1, Range of values is 0 to 0
  2702                           ; switch strategies available:
  2703                           ; Name         Instructions Cycles
  2704                           ; simple_byte            4     3 (average)
  2705                           ; direct_byte           11     8 (fixed)
  2706                           ; jumptable            260     6 (fixed)
  2707                           ;	Chosen strategy is simple_byte
  2708  01EF  0829               	movf	set_time@blink_pos+1,w
  2709  01F0  3A00               	xorlw	0	; case 0
  2710  01F1  1903               	skipnz
  2711  01F2  29F4               	goto	l2885
  2712  01F3  29FC               	goto	l146
  2713  01F4                     l2885:
  2714                           
  2715                           ; Switch size 1, requested type "simple"
  2716                           ; Number of cases is 2, Range of values is 0 to 1
  2717                           ; switch strategies available:
  2718                           ; Name         Instructions Cycles
  2719                           ; simple_byte            7     4 (average)
  2720                           ; direct_byte           14     8 (fixed)
  2721                           ; jumptable            260     6 (fixed)
  2722                           ;	Chosen strategy is simple_byte
  2723  01F4  0828               	movf	set_time@blink_pos,w
  2724  01F5  3A00               	xorlw	0	; case 0
  2725  01F6  1903               	skipnz
  2726  01F7  29D3               	goto	l2595
  2727  01F8  3A01               	xorlw	1	; case 1
  2728  01F9  1903               	skipnz
  2729  01FA  29E1               	goto	l2597
  2730  01FB  29FC               	goto	l146
  2731  01FC                     l146:
  2732  01FC  0008               	return
  2733  01FD                     __end_of_set_time:
  2734                           
  2735                           	psect	text4
  2736  01FD                     __ptext4:	
  2737 ;; *************** function _set_temp *****************
  2738 ;; Defined at:
  2739 ;;		line 373 in file "main.c"
  2740 ;; Parameters:    Size  Location     Type
  2741 ;;  key             1    wreg     unsigned char 
  2742 ;; Auto vars:     Size  Location     Type
  2743 ;;  key             1   15[BANK0 ] unsigned char 
  2744 ;; Return value:  Size  Location     Type
  2745 ;;                  1    wreg      void 
  2746 ;; Registers used:
  2747 ;;		wreg, fsr0l, fsr0h, status,2, status,0, btemp+1, pclath, cstack
  2748 ;; Tracked objects:
  2749 ;;		On entry : 0/0
  2750 ;;		On exit  : 0/0
  2751 ;;		Unchanged: 0/0
  2752 ;; Data sizes:     COMMON   BANK0   BANK1   BANK3   BANK2
  2753 ;;      Params:         0       0       0       0       0
  2754 ;;      Locals:         0       1       0       0       0
  2755 ;;      Temps:          0       3       0       0       0
  2756 ;;      Totals:         0       4       0       0       0
  2757 ;;Total ram usage:        4 bytes
  2758 ;; Hardware stack levels used: 1
  2759 ;; Hardware stack levels required when called: 3
  2760 ;; This function calls:
  2761 ;;		___awdiv
  2762 ;;		___awmod
  2763 ;;		___bmul
  2764 ;;		_clcd_print
  2765 ;;		_clcd_putch
  2766 ;;		_clear_clcd
  2767 ;; This function is called by:
  2768 ;;		_main
  2769 ;; This function uses a non-reentrant model
  2770 ;;
  2771                           
  2772                           
  2773                           ;psect for function _set_temp
  2774  01FD                     _set_temp:
  2775                           
  2776                           ;incstack = 0
  2777                           ; Regs used in _set_temp: [wreg-fsr0h+status,2+status,0+btemp+1+pclath+cstack]
  2778                           ;set_temp@key stored from wreg
  2779  01FD  1283               	bcf	3,5	;RP0=0, select bank0
  2780  01FE  1303               	bcf	3,6	;RP1=0, select bank0
  2781  01FF  00C9               	movwf	set_temp@key
  2782  0200                     l2607:
  2783                           
  2784                           ;main.c: 373: ;main.c: 374:     if(key!= '*' && key!= '#' && key!= 0xFF);main.c: 375:   
      +                            {;main.c: 376:         key_count++;;main.c: 377:         if(key_count <= 3)
  2785  0200  3011               	movlw	17
  2786  0201  0631               	xorwf	_reset_flag,w
  2787  0202  1D03               	btfss	3,2
  2788  0203  2A05               	goto	u2351
  2789  0204  2A06               	goto	u2350
  2790  0205                     u2351:
  2791  0205  2A4A               	goto	l2623
  2792  0206                     u2350:
  2793  0206                     l2609:
  2794                           
  2795                           ;main.c: 378:         {;main.c: 379:             temp = temp*10 + key;
  2796  0206  30FF               	movlw	255
  2797  0207  00C6               	movwf	??_set_temp
  2798  0208  0846               	movf	??_set_temp,w
  2799  0209  00C9               	movwf	set_temp@key
  2800  020A                     l2611:
  2801                           
  2802                           ;main.c: 380: 
  2803  020A  01B3               	clrf	_temp
  2804  020B                     l2613:
  2805                           
  2806                           ;main.c: 381:         }
  2807  020B  300F               	movlw	15
  2808  020C  00A6               	movwf	set_temp@wait
  2809  020D  3000               	movlw	0
  2810  020E  00A7               	movwf	set_temp@wait+1
  2811                           
  2812                           ;main.c: 382:     }
  2813  020F  01A4               	clrf	set_temp@blink
  2814  0210  01A5               	clrf	set_temp@blink+1
  2815                           
  2816                           ;main.c: 383: 
  2817  0211  01A2               	clrf	set_temp@key_count
  2818  0212  01A3               	clrf	set_temp@key_count+1
  2819  0213                     l2615:
  2820                           
  2821                           ;main.c: 384:     else if (key == '*')
  2822  0213  3086               	movlw	low (STR_20| (0+32768))
  2823  0214  00BA               	movwf	clcd_print@str
  2824  0215  3086               	movlw	high (STR_20| (0+32768))
  2825  0216  00BB               	movwf	clcd_print@str+1
  2826  0217  3080               	movlw	128
  2827  0218  00C6               	movwf	??_set_temp
  2828  0219  0846               	movf	??_set_temp,w
  2829  021A  00BC               	movwf	clcd_print@addr
  2830  021B  120A  158A  2534  120A  118A  	fcall	_clcd_print
  2831  0220                     l2617:
  2832                           
  2833                           ;main.c: 385:     {
  2834  0220  308B               	movlw	139
  2835  0221  1283               	bcf	3,5	;RP0=0, select bank0
  2836  0222  1303               	bcf	3,6	;RP1=0, select bank0
  2837  0223  00C6               	movwf	??_set_temp
  2838  0224  0846               	movf	??_set_temp,w
  2839  0225  00C4               	movwf	clcd_putch@addr
  2840  0226  30DF               	movlw	223
  2841  0227  120A  158A  24D9  120A  118A  	fcall	_clcd_putch
  2842  022C                     l2619:
  2843                           
  2844                           ;main.c: 386:             temp = 0;
  2845  022C  30D9               	movlw	low (STR_21| (0+32768))
  2846  022D  1283               	bcf	3,5	;RP0=0, select bank0
  2847  022E  1303               	bcf	3,6	;RP1=0, select bank0
  2848  022F  00BA               	movwf	clcd_print@str
  2849  0230  3086               	movlw	high (STR_21| (0+32768))
  2850  0231  00BB               	movwf	clcd_print@str+1
  2851  0232  30C0               	movlw	192
  2852  0233  00C6               	movwf	??_set_temp
  2853  0234  0846               	movf	??_set_temp,w
  2854  0235  00BC               	movwf	clcd_print@addr
  2855  0236  120A  158A  2534  120A  118A  	fcall	_clcd_print
  2856  023B                     l2621:
  2857                           
  2858                           ;main.c: 387:             key_count = 0;
  2859  023B  3056               	movlw	low (STR_10| (0+32768))
  2860  023C  1283               	bcf	3,5	;RP0=0, select bank0
  2861  023D  1303               	bcf	3,6	;RP1=0, select bank0
  2862  023E  00BA               	movwf	clcd_print@str
  2863  023F  3086               	movlw	high (STR_10| (0+32768))
  2864  0240  00BB               	movwf	clcd_print@str+1
  2865  0241  30D0               	movlw	208
  2866  0242  00C6               	movwf	??_set_temp
  2867  0243  0846               	movf	??_set_temp,w
  2868  0244  00BC               	movwf	clcd_print@addr
  2869  0245  120A  158A  2534  120A  118A  	fcall	_clcd_print
  2870  024A                     l2623:
  2871                           
  2872                           ;main.c: 392:     {
  2873  024A  302A               	movlw	42
  2874  024B  1283               	bcf	3,5	;RP0=0, select bank0
  2875  024C  1303               	bcf	3,6	;RP1=0, select bank0
  2876  024D  0649               	xorwf	set_temp@key,w
  2877  024E  1903               	btfsc	3,2
  2878  024F  2A51               	goto	u2361
  2879  0250  2A52               	goto	u2360
  2880  0251                     u2361:
  2881  0251  2A83               	goto	l2635
  2882  0252                     u2360:
  2883  0252                     l2625:
  2884  0252  3023               	movlw	35
  2885  0253  0649               	xorwf	set_temp@key,w
  2886  0254  1903               	btfsc	3,2
  2887  0255  2A57               	goto	u2371
  2888  0256  2A58               	goto	u2370
  2889  0257                     u2371:
  2890  0257  2A83               	goto	l2635
  2891  0258                     u2370:
  2892  0258                     l2627:
  2893  0258  0A49               	incf	set_temp@key,w
  2894  0259  1903               	btfsc	3,2
  2895  025A  2A5C               	goto	u2381
  2896  025B  2A5D               	goto	u2380
  2897  025C                     u2381:
  2898  025C  2A83               	goto	l2635
  2899  025D                     u2380:
  2900  025D                     l2629:
  2901                           
  2902                           ;main.c: 393:             clear_clcd();;main.c: 394:             clcd_print("  Pre-Heati
      +                          ng   ", (0x80 + 0));
  2903  025D  3001               	movlw	1
  2904  025E  07A2               	addwf	set_temp@key_count,f
  2905  025F  1803               	skipnc
  2906  0260  0AA3               	incf	set_temp@key_count+1,f
  2907  0261  3000               	movlw	0
  2908  0262  07A3               	addwf	set_temp@key_count+1,f
  2909  0263                     l2631:
  2910                           
  2911                           ;main.c: 395:             clcd_print("Time Rem.= ", (0x90 + 0));
  2912  0263  0823               	movf	set_temp@key_count+1,w
  2913  0264  3A80               	xorlw	128
  2914  0265  00FF               	movwf	btemp+1
  2915  0266  3080               	movlw	128
  2916  0267  027F               	subwf	btemp+1,w
  2917  0268  1D03               	skipz
  2918  0269  2A6C               	goto	u2395
  2919  026A  3004               	movlw	4
  2920  026B  0222               	subwf	set_temp@key_count,w
  2921  026C                     u2395:
  2922  026C  1803               	skipnc
  2923  026D  2A6F               	goto	u2391
  2924  026E  2A70               	goto	u2390
  2925  026F                     u2391:
  2926  026F  2B3D               	goto	l171
  2927  0270                     u2390:
  2928  0270                     l2633:
  2929                           
  2930                           ;main.c: 396: ;main.c: 397: 
  2931  0270  300A               	movlw	10
  2932  0271  1283               	bcf	3,5	;RP0=0, select bank0
  2933  0272  1303               	bcf	3,6	;RP1=0, select bank0
  2934  0273  00C6               	movwf	??_set_temp
  2935  0274  0846               	movf	??_set_temp,w
  2936  0275  00F3               	movwf	___bmul@multiplicand
  2937  0276  0833               	movf	_temp,w
  2938  0277  120A  118A  25EB  120A  118A  	fcall	___bmul
  2939  027C  1283               	bcf	3,5	;RP0=0, select bank0
  2940  027D  1303               	bcf	3,6	;RP1=0, select bank0
  2941  027E  0749               	addwf	set_temp@key,w
  2942  027F  00C7               	movwf	??_set_temp+1
  2943  0280  0847               	movf	??_set_temp+1,w
  2944  0281  00B3               	movwf	_temp
  2945  0282  2B3D               	goto	l171
  2946  0283                     l2635:
  2947  0283  302A               	movlw	42
  2948  0284  0649               	xorwf	set_temp@key,w
  2949  0285  1D03               	btfss	3,2
  2950  0286  2A88               	goto	u2401
  2951  0287  2A89               	goto	u2400
  2952  0288                     u2401:
  2953  0288  2A8D               	goto	l2639
  2954  0289                     u2400:
  2955  0289                     l2637:
  2956                           
  2957                           ;main.c: 403:                 clcd_putch(sec/100 + '0',(0x90 + 10));;main.c: 404:       
      +                                    clcd_putch((sec/10)%10 + '0',(0x90 + 11));
  2958  0289  01B3               	clrf	_temp
  2959                           
  2960                           ;main.c: 405:                 clcd_putch(sec%10 + '0',(0x90 + 12));
  2961  028A  01A2               	clrf	set_temp@key_count
  2962  028B  01A3               	clrf	set_temp@key_count+1
  2963                           
  2964                           ;main.c: 407: 
  2965  028C  2B3D               	goto	l171
  2966  028D                     l2639:
  2967  028D  3023               	movlw	35
  2968  028E  0649               	xorwf	set_temp@key,w
  2969  028F  1D03               	btfss	3,2
  2970  0290  2A92               	goto	u2411
  2971  0291  2A93               	goto	u2410
  2972  0292                     u2411:
  2973  0292  2B3D               	goto	l171
  2974  0293                     u2410:
  2975  0293                     l2641:
  2976                           
  2977                           ;main.c: 410:             clear_clcd();;main.c: 411:             convec_mode_op = 0x0A;
  2978  0293  120A  118A  27F1  120A  118A  	fcall	_clear_clcd
  2979  0298                     l2643:
  2980                           
  2981                           ;main.c: 412:             reset_flag = 0x10;
  2982  0298  3023               	movlw	low (STR_23| (0+32768))
  2983  0299  1283               	bcf	3,5	;RP0=0, select bank0
  2984  029A  1303               	bcf	3,6	;RP1=0, select bank0
  2985  029B  00BA               	movwf	clcd_print@str
  2986  029C  3086               	movlw	high (STR_23| (0+32768))
  2987  029D  00BB               	movwf	clcd_print@str+1
  2988  029E  3080               	movlw	128
  2989  029F  00C6               	movwf	??_set_temp
  2990  02A0  0846               	movf	??_set_temp,w
  2991  02A1  00BC               	movwf	clcd_print@addr
  2992  02A2  120A  158A  2534  120A  118A  	fcall	_clcd_print
  2993  02A7                     l2645:
  2994                           
  2995                           ;main.c: 413:     }
  2996  02A7  30B0               	movlw	low (STR_24| (0+32768))
  2997  02A8  1283               	bcf	3,5	;RP0=0, select bank0
  2998  02A9  1303               	bcf	3,6	;RP1=0, select bank0
  2999  02AA  00BA               	movwf	clcd_print@str
  3000  02AB  3086               	movlw	high (STR_24| (0+32768))
  3001  02AC  00BB               	movwf	clcd_print@str+1
  3002  02AD  3090               	movlw	144
  3003  02AE  00C6               	movwf	??_set_temp
  3004  02AF  0846               	movf	??_set_temp,w
  3005  02B0  00BC               	movwf	clcd_print@addr
  3006  02B1  120A  158A  2534  120A  118A  	fcall	_clcd_print
  3007  02B6                     l2647:
  3008  02B6  30B4               	movlw	180
  3009  02B7  1283               	bcf	3,5	;RP0=0, select bank0
  3010  02B8  1303               	bcf	3,6	;RP1=0, select bank0
  3011  02B9  00C6               	movwf	??_set_temp
  3012  02BA  0846               	movf	??_set_temp,w
  3013  02BB  00B5               	movwf	_sec
  3014  02BC                     l2649:
  3015  02BC  1512               	bsf	18,2	;volatile
  3016  02BD  2B26               	goto	l2653
  3017  02BE                     l2651:
  3018  02BE  309A               	movlw	154
  3019  02BF  00C6               	movwf	??_set_temp
  3020  02C0  0846               	movf	??_set_temp,w
  3021  02C1  00C4               	movwf	clcd_putch@addr
  3022  02C2  3064               	movlw	100
  3023  02C3  00F3               	movwf	___awdiv@divisor
  3024  02C4  3000               	movlw	0
  3025  02C5  00F4               	movwf	___awdiv@divisor+1
  3026  02C6  0835               	movf	_sec,w
  3027  02C7  00C7               	movwf	??_set_temp+1
  3028  02C8  01C8               	clrf	??_set_temp+2
  3029  02C9  0847               	movf	??_set_temp+1,w
  3030  02CA  00F5               	movwf	___awdiv@dividend
  3031  02CB  0848               	movf	??_set_temp+2,w
  3032  02CC  00F6               	movwf	___awdiv@dividend+1
  3033  02CD  120A  158A  2692  120A  118A  	fcall	___awdiv
  3034  02D2  0873               	movf	?___awdiv,w
  3035  02D3  3E30               	addlw	48
  3036  02D4  120A  158A  24D9  120A  118A  	fcall	_clcd_putch
  3037  02D9  309B               	movlw	155
  3038  02DA  1283               	bcf	3,5	;RP0=0, select bank0
  3039  02DB  1303               	bcf	3,6	;RP1=0, select bank0
  3040  02DC  00C6               	movwf	??_set_temp
  3041  02DD  0846               	movf	??_set_temp,w
  3042  02DE  00C4               	movwf	clcd_putch@addr
  3043  02DF  300A               	movlw	10
  3044  02E0  00BE               	movwf	___awmod@divisor
  3045  02E1  3000               	movlw	0
  3046  02E2  00BF               	movwf	___awmod@divisor+1
  3047  02E3  300A               	movlw	10
  3048  02E4  00F3               	movwf	___awdiv@divisor
  3049  02E5  3000               	movlw	0
  3050  02E6  00F4               	movwf	___awdiv@divisor+1
  3051  02E7  0835               	movf	_sec,w
  3052  02E8  00C7               	movwf	??_set_temp+1
  3053  02E9  01C8               	clrf	??_set_temp+2
  3054  02EA  0847               	movf	??_set_temp+1,w
  3055  02EB  00F5               	movwf	___awdiv@dividend
  3056  02EC  0848               	movf	??_set_temp+2,w
  3057  02ED  00F6               	movwf	___awdiv@dividend+1
  3058  02EE  120A  158A  2692  120A  118A  	fcall	___awdiv
  3059  02F3  0874               	movf	?___awdiv+1,w
  3060  02F4  1283               	bcf	3,5	;RP0=0, select bank0
  3061  02F5  1303               	bcf	3,6	;RP1=0, select bank0
  3062  02F6  00C1               	movwf	___awmod@dividend+1
  3063  02F7  0873               	movf	?___awdiv,w
  3064  02F8  00C0               	movwf	___awmod@dividend
  3065  02F9  120A  158A  25D4  120A  118A  	fcall	___awmod
  3066  02FE  1283               	bcf	3,5	;RP0=0, select bank0
  3067  02FF  1303               	bcf	3,6	;RP1=0, select bank0
  3068  0300  083E               	movf	?___awmod,w
  3069  0301  3E30               	addlw	48
  3070  0302  120A  158A  24D9  120A  118A  	fcall	_clcd_putch
  3071  0307  309C               	movlw	156
  3072  0308  1283               	bcf	3,5	;RP0=0, select bank0
  3073  0309  1303               	bcf	3,6	;RP1=0, select bank0
  3074  030A  00C6               	movwf	??_set_temp
  3075  030B  0846               	movf	??_set_temp,w
  3076  030C  00C4               	movwf	clcd_putch@addr
  3077  030D  300A               	movlw	10
  3078  030E  00BE               	movwf	___awmod@divisor
  3079  030F  3000               	movlw	0
  3080  0310  00BF               	movwf	___awmod@divisor+1
  3081  0311  0835               	movf	_sec,w
  3082  0312  00C7               	movwf	??_set_temp+1
  3083  0313  01C8               	clrf	??_set_temp+2
  3084  0314  0847               	movf	??_set_temp+1,w
  3085  0315  00C0               	movwf	___awmod@dividend
  3086  0316  0848               	movf	??_set_temp+2,w
  3087  0317  00C1               	movwf	___awmod@dividend+1
  3088  0318  120A  158A  25D4  120A  118A  	fcall	___awmod
  3089  031D  1283               	bcf	3,5	;RP0=0, select bank0
  3090  031E  1303               	bcf	3,6	;RP1=0, select bank0
  3091  031F  083E               	movf	?___awmod,w
  3092  0320  3E30               	addlw	48
  3093  0321  120A  158A  24D9  120A  118A  	fcall	_clcd_putch
  3094  0326                     l2653:
  3095  0326  1283               	bcf	3,5	;RP0=0, select bank0
  3096  0327  1303               	bcf	3,6	;RP1=0, select bank0
  3097  0328  0835               	movf	_sec,w
  3098  0329  1D03               	btfss	3,2
  3099  032A  2B2C               	goto	u2421
  3100  032B  2B2D               	goto	u2420
  3101  032C                     u2421:
  3102  032C  2ABE               	goto	l2651
  3103  032D                     u2420:
  3104  032D                     l177:
  3105  032D  1112               	bcf	18,2	;volatile
  3106  032E                     l2655:
  3107  032E  120A  118A  27F1  120A  118A  	fcall	_clear_clcd
  3108  0333                     l2657:
  3109  0333  300A               	movlw	10
  3110  0334  1283               	bcf	3,5	;RP0=0, select bank0
  3111  0335  1303               	bcf	3,6	;RP1=0, select bank0
  3112  0336  00C6               	movwf	??_set_temp
  3113  0337  0846               	movf	??_set_temp,w
  3114  0338  00B0               	movwf	_convec_mode_op
  3115  0339                     l2659:
  3116  0339  3010               	movlw	16
  3117  033A  00C6               	movwf	??_set_temp
  3118  033B  0846               	movf	??_set_temp,w
  3119  033C  00B1               	movwf	_reset_flag
  3120  033D                     l171:
  3121                           
  3122                           ;main.c: 440:         temp_arr[0] = (temp / 100) + '0';
  3123  033D  3064               	movlw	100
  3124  033E  00F3               	movwf	___awdiv@divisor
  3125  033F  3000               	movlw	0
  3126  0340  00F4               	movwf	___awdiv@divisor+1
  3127  0341  1283               	bcf	3,5	;RP0=0, select bank0
  3128  0342  1303               	bcf	3,6	;RP1=0, select bank0
  3129  0343  0833               	movf	_temp,w
  3130  0344  00C6               	movwf	??_set_temp
  3131  0345  01C7               	clrf	??_set_temp+1
  3132  0346  0846               	movf	??_set_temp,w
  3133  0347  00F5               	movwf	___awdiv@dividend
  3134  0348  0847               	movf	??_set_temp+1,w
  3135  0349  00F6               	movwf	___awdiv@dividend+1
  3136  034A  120A  158A  2692  120A  118A  	fcall	___awdiv
  3137  034F  0873               	movf	?___awdiv,w
  3138  0350  3E30               	addlw	48
  3139  0351  1283               	bcf	3,5	;RP0=0, select bank0
  3140  0352  1303               	bcf	3,6	;RP1=0, select bank0
  3141  0353  00C8               	movwf	??_set_temp+2
  3142  0354  0848               	movf	??_set_temp+2,w
  3143  0355  00B6               	movwf	set_temp@temp_arr
  3144                           
  3145                           ;main.c: 441:         temp_arr[1] = (temp / 10) % 10 + '0';
  3146  0356  300A               	movlw	10
  3147  0357  00BE               	movwf	___awmod@divisor
  3148  0358  3000               	movlw	0
  3149  0359  00BF               	movwf	___awmod@divisor+1
  3150  035A  300A               	movlw	10
  3151  035B  00F3               	movwf	___awdiv@divisor
  3152  035C  3000               	movlw	0
  3153  035D  00F4               	movwf	___awdiv@divisor+1
  3154  035E  0833               	movf	_temp,w
  3155  035F  00C6               	movwf	??_set_temp
  3156  0360  01C7               	clrf	??_set_temp+1
  3157  0361  0846               	movf	??_set_temp,w
  3158  0362  00F5               	movwf	___awdiv@dividend
  3159  0363  0847               	movf	??_set_temp+1,w
  3160  0364  00F6               	movwf	___awdiv@dividend+1
  3161  0365  120A  158A  2692  120A  118A  	fcall	___awdiv
  3162  036A  0874               	movf	?___awdiv+1,w
  3163  036B  1283               	bcf	3,5	;RP0=0, select bank0
  3164  036C  1303               	bcf	3,6	;RP1=0, select bank0
  3165  036D  00C1               	movwf	___awmod@dividend+1
  3166  036E  0873               	movf	?___awdiv,w
  3167  036F  00C0               	movwf	___awmod@dividend
  3168  0370  120A  158A  25D4  120A  118A  	fcall	___awmod
  3169  0375  1283               	bcf	3,5	;RP0=0, select bank0
  3170  0376  1303               	bcf	3,6	;RP1=0, select bank0
  3171  0377  083E               	movf	?___awmod,w
  3172  0378  3E30               	addlw	48
  3173  0379  00C8               	movwf	??_set_temp+2
  3174  037A  0848               	movf	??_set_temp+2,w
  3175  037B  00B7               	movwf	set_temp@temp_arr+1
  3176                           
  3177                           ;main.c: 442:         temp_arr[2] = (temp % 10) + '0';
  3178  037C  300A               	movlw	10
  3179  037D  00BE               	movwf	___awmod@divisor
  3180  037E  3000               	movlw	0
  3181  037F  00BF               	movwf	___awmod@divisor+1
  3182  0380  0833               	movf	_temp,w
  3183  0381  00C6               	movwf	??_set_temp
  3184  0382  01C7               	clrf	??_set_temp+1
  3185  0383  0846               	movf	??_set_temp,w
  3186  0384  00C0               	movwf	___awmod@dividend
  3187  0385  0847               	movf	??_set_temp+1,w
  3188  0386  00C1               	movwf	___awmod@dividend+1
  3189  0387  120A  158A  25D4  120A  118A  	fcall	___awmod
  3190  038C  1283               	bcf	3,5	;RP0=0, select bank0
  3191  038D  1303               	bcf	3,6	;RP1=0, select bank0
  3192  038E  083E               	movf	?___awmod,w
  3193  038F  3E30               	addlw	48
  3194  0390  00C8               	movwf	??_set_temp+2
  3195  0391  0848               	movf	??_set_temp+2,w
  3196  0392  00B8               	movwf	set_temp@temp_arr+2
  3197  0393                     l2661:
  3198                           
  3199                           ;main.c: 443:         temp_arr[3] = '\0';
  3200  0393  01B9               	clrf	set_temp@temp_arr+3
  3201  0394                     l2663:
  3202                           
  3203                           ;main.c: 446:          if(wait ++ == 15)
  3204  0394  3001               	movlw	1
  3205  0395  07A6               	addwf	set_temp@wait,f
  3206  0396  1803               	skipnc
  3207  0397  0AA7               	incf	set_temp@wait+1,f
  3208  0398  3000               	movlw	0
  3209  0399  07A7               	addwf	set_temp@wait+1,f
  3210  039A  3010               	movlw	16
  3211  039B  0626               	xorwf	set_temp@wait,w
  3212  039C  0427               	iorwf	set_temp@wait+1,w
  3213  039D  1D03               	btfss	3,2
  3214  039E  2BA0               	goto	u2431
  3215  039F  2BA1               	goto	u2430
  3216  03A0                     u2431:
  3217  03A0  2BBE               	goto	l2671
  3218  03A1                     u2430:
  3219  03A1                     l2665:
  3220                           
  3221                           ;main.c: 447:         {;main.c: 448:               wait = 0;
  3222  03A1  01A6               	clrf	set_temp@wait
  3223  03A2  01A7               	clrf	set_temp@wait+1
  3224  03A3                     l2667:
  3225                           
  3226                           ;main.c: 449:               blink = !blink;
  3227  03A3  0824               	movf	set_temp@blink,w
  3228  03A4  0425               	iorwf	set_temp@blink+1,w
  3229  03A5  1903               	btfsc	3,2
  3230  03A6  2BA8               	goto	u2441
  3231  03A7  2BAA               	goto	u2440
  3232  03A8                     u2441:
  3233  03A8  3001               	movlw	1
  3234  03A9  2BAB               	goto	u2450
  3235  03AA                     u2440:
  3236  03AA  3000               	movlw	0
  3237  03AB                     u2450:
  3238  03AB  00C6               	movwf	??_set_temp
  3239  03AC  01C7               	clrf	??_set_temp+1
  3240  03AD  0846               	movf	??_set_temp,w
  3241  03AE  00A4               	movwf	set_temp@blink
  3242  03AF  0847               	movf	??_set_temp+1,w
  3243  03B0  00A5               	movwf	set_temp@blink+1
  3244  03B1                     l2669:
  3245                           
  3246                           ;main.c: 450:               clcd_print(temp_arr ,(0xC0 + 8));
  3247  03B1  3036               	movlw	(low (set_temp@temp_arr| 0))& (0+255)
  3248  03B2  00BA               	movwf	clcd_print@str
  3249  03B3  3000               	movlw	0
  3250  03B4  00BB               	movwf	clcd_print@str+1
  3251  03B5  30C8               	movlw	200
  3252  03B6  00C6               	movwf	??_set_temp
  3253  03B7  0846               	movf	??_set_temp,w
  3254  03B8  00BC               	movwf	clcd_print@addr
  3255  03B9  120A  158A  2534  120A  118A  	fcall	_clcd_print
  3256  03BE                     l2671:
  3257                           
  3258                           ;main.c: 454:         if(blink)
  3259  03BE  1283               	bcf	3,5	;RP0=0, select bank0
  3260  03BF  1303               	bcf	3,6	;RP1=0, select bank0
  3261  03C0  0824               	movf	set_temp@blink,w
  3262  03C1  0425               	iorwf	set_temp@blink+1,w
  3263  03C2  1903               	btfsc	3,2
  3264  03C3  2BC5               	goto	u2461
  3265  03C4  2BC6               	goto	u2460
  3266  03C5                     u2461:
  3267  03C5  2BD3               	goto	l180
  3268  03C6                     u2460:
  3269  03C6                     l2673:
  3270                           
  3271                           ;main.c: 455:         {;main.c: 457:             clcd_print("   " ,(0xC0 + 8));
  3272  03C6  301F               	movlw	low ((STR_2+13)| (0+32768))
  3273  03C7  00BA               	movwf	clcd_print@str
  3274  03C8  3086               	movlw	high ((STR_2+13)| (0+32768))
  3275  03C9  00BB               	movwf	clcd_print@str+1
  3276  03CA  30C8               	movlw	200
  3277  03CB  00C6               	movwf	??_set_temp
  3278  03CC  0846               	movf	??_set_temp,w
  3279  03CD  00BC               	movwf	clcd_print@addr
  3280  03CE  120A  158A  2534  120A  118A  	fcall	_clcd_print
  3281  03D3                     l180:
  3282  03D3  0008               	return
  3283  03D4                     __end_of_set_temp:
  3284                           
  3285                           	psect	text5
  3286  07F1                     __ptext5:	
  3287 ;; *************** function _clear_clcd *****************
  3288 ;; Defined at:
  3289 ;;		line 180 in file "main.c"
  3290 ;; Parameters:    Size  Location     Type
  3291 ;;		None
  3292 ;; Auto vars:     Size  Location     Type
  3293 ;;		None
  3294 ;; Return value:  Size  Location     Type
  3295 ;;                  1    wreg      void 
  3296 ;; Registers used:
  3297 ;;		wreg, status,2, status,0, pclath, cstack
  3298 ;; Tracked objects:
  3299 ;;		On entry : 0/0
  3300 ;;		On exit  : 0/0
  3301 ;;		Unchanged: 0/0
  3302 ;; Data sizes:     COMMON   BANK0   BANK1   BANK3   BANK2
  3303 ;;      Params:         0       0       0       0       0
  3304 ;;      Locals:         0       0       0       0       0
  3305 ;;      Temps:          1       0       0       0       0
  3306 ;;      Totals:         1       0       0       0       0
  3307 ;;Total ram usage:        1 bytes
  3308 ;; Hardware stack levels used: 1
  3309 ;; Hardware stack levels required when called: 2
  3310 ;; This function calls:
  3311 ;;		_clcd_write
  3312 ;; This function is called by:
  3313 ;;		_main
  3314 ;;		_set_time
  3315 ;;		_door_status_check
  3316 ;;		_time_display_screen
  3317 ;;		_set_temp
  3318 ;; This function uses a non-reentrant model
  3319 ;;
  3320                           
  3321                           
  3322                           ;psect for function _clear_clcd
  3323  07F1                     _clear_clcd:
  3324  07F1                     l1687:	
  3325                           ;incstack = 0
  3326                           ; Regs used in _clear_clcd: [wreg+status,2+status,0+pclath+cstack]
  3327                           
  3328                           
  3329                           ;main.c: 182: void cooking_mode_display (void)
  3330  07F1  01F3               	clrf	clcd_write@mode
  3331  07F2  3001               	movlw	1
  3332  07F3  120A  158A  2567  120A  118A  	fcall	_clcd_write
  3333  07F8                     l1689:
  3334                           
  3335                           ;main.c: 183: {
  3336  07F8  30A6               	movlw	166
  3337  07F9  00F7               	movwf	??_clear_clcd
  3338  07FA                     u2697:
  3339  07FA  0BF7               	decfsz	??_clear_clcd,f
  3340  07FB  2FFA               	goto	u2697
  3341  07FC  0000               	nop
  3342  07FD                     l109:
  3343  07FD  0008               	return
  3344  07FE                     __end_of_clear_clcd:
  3345                           
  3346                           	psect	text6
  3347  05EB                     __ptext6:	
  3348 ;; *************** function ___bmul *****************
  3349 ;; Defined at:
  3350 ;;		line 4 in file "C:\Program Files\Microchip\xc8\v2.32\pic\sources\c90\common\Umul8.c"
  3351 ;; Parameters:    Size  Location     Type
  3352 ;;  multiplier      1    wreg     unsigned char 
  3353 ;;  multiplicand    1    3[COMMON] unsigned char 
  3354 ;; Auto vars:     Size  Location     Type
  3355 ;;  multiplier      1    6[COMMON] unsigned char 
  3356 ;;  product         1    5[COMMON] unsigned char 
  3357 ;; Return value:  Size  Location     Type
  3358 ;;                  1    wreg      unsigned char 
  3359 ;; Registers used:
  3360 ;;		wreg, status,2, status,0
  3361 ;; Tracked objects:
  3362 ;;		On entry : 0/0
  3363 ;;		On exit  : 0/0
  3364 ;;		Unchanged: 0/0
  3365 ;; Data sizes:     COMMON   BANK0   BANK1   BANK3   BANK2
  3366 ;;      Params:         1       0       0       0       0
  3367 ;;      Locals:         2       0       0       0       0
  3368 ;;      Temps:          1       0       0       0       0
  3369 ;;      Totals:         4       0       0       0       0
  3370 ;;Total ram usage:        4 bytes
  3371 ;; Hardware stack levels used: 1
  3372 ;; Hardware stack levels required when called: 1
  3373 ;; This function calls:
  3374 ;;		Nothing
  3375 ;; This function is called by:
  3376 ;;		_set_time
  3377 ;;		_set_temp
  3378 ;; This function uses a non-reentrant model
  3379 ;;
  3380                           
  3381                           
  3382                           ;psect for function ___bmul
  3383  05EB                     ___bmul:
  3384                           
  3385                           ;incstack = 0
  3386                           ; Regs used in ___bmul: [wreg+status,2+status,0]
  3387                           ;___bmul@multiplier stored from wreg
  3388  05EB  00F6               	movwf	___bmul@multiplier
  3389  05EC                     l1851:
  3390  05EC  01F5               	clrf	___bmul@product
  3391  05ED                     l1853:
  3392  05ED  1C76               	btfss	___bmul@multiplier,0
  3393  05EE  2DF0               	goto	u1251
  3394  05EF  2DF1               	goto	u1250
  3395  05F0                     u1251:
  3396  05F0  2DF5               	goto	l1857
  3397  05F1                     u1250:
  3398  05F1                     l1855:
  3399  05F1  0873               	movf	___bmul@multiplicand,w
  3400  05F2  00F4               	movwf	??___bmul
  3401  05F3  0874               	movf	??___bmul,w
  3402  05F4  07F5               	addwf	___bmul@product,f
  3403  05F5                     l1857:
  3404  05F5  1003               	clrc
  3405  05F6  0DF3               	rlf	___bmul@multiplicand,f
  3406  05F7                     l1859:
  3407  05F7  1003               	clrc
  3408  05F8  0CF6               	rrf	___bmul@multiplier,f
  3409  05F9  0876               	movf	___bmul@multiplier,w
  3410  05FA  1D03               	btfss	3,2
  3411  05FB  2DFD               	goto	u1261
  3412  05FC  2DFE               	goto	u1260
  3413  05FD                     u1261:
  3414  05FD  2DED               	goto	l1853
  3415  05FE                     u1260:
  3416  05FE                     l1861:
  3417  05FE  0875               	movf	___bmul@product,w
  3418  05FF                     l423:
  3419  05FF  0008               	return
  3420  0600                     __end_of___bmul:
  3421                           
  3422                           	psect	text7
  3423  0DD4                     __ptext7:	
  3424 ;; *************** function ___awmod *****************
  3425 ;; Defined at:
  3426 ;;		line 5 in file "C:\Program Files\Microchip\xc8\v2.32\pic\sources\c90\common\awmod.c"
  3427 ;; Parameters:    Size  Location     Type
  3428 ;;  divisor         2    4[BANK0 ] int 
  3429 ;;  dividend        2    6[BANK0 ] int 
  3430 ;; Auto vars:     Size  Location     Type
  3431 ;;  sign            1    9[BANK0 ] unsigned char 
  3432 ;;  counter         1    8[BANK0 ] unsigned char 
  3433 ;; Return value:  Size  Location     Type
  3434 ;;                  2    4[BANK0 ] int 
  3435 ;; Registers used:
  3436 ;;		wreg, status,2, status,0
  3437 ;; Tracked objects:
  3438 ;;		On entry : 0/0
  3439 ;;		On exit  : 0/0
  3440 ;;		Unchanged: 0/0
  3441 ;; Data sizes:     COMMON   BANK0   BANK1   BANK3   BANK2
  3442 ;;      Params:         0       4       0       0       0
  3443 ;;      Locals:         0       2       0       0       0
  3444 ;;      Temps:          1       0       0       0       0
  3445 ;;      Totals:         1       6       0       0       0
  3446 ;;Total ram usage:        7 bytes
  3447 ;; Hardware stack levels used: 1
  3448 ;; Hardware stack levels required when called: 1
  3449 ;; This function calls:
  3450 ;;		Nothing
  3451 ;; This function is called by:
  3452 ;;		_set_time
  3453 ;;		_time_display_screen
  3454 ;;		_set_temp
  3455 ;; This function uses a non-reentrant model
  3456 ;;
  3457                           
  3458                           
  3459                           ;psect for function ___awmod
  3460  0DD4                     ___awmod:
  3461  0DD4                     l2439:	
  3462                           ;incstack = 0
  3463                           ; Regs used in ___awmod: [wreg+status,2+status,0]
  3464                           
  3465  0DD4  1283               	bcf	3,5	;RP0=0, select bank0
  3466  0DD5  1303               	bcf	3,6	;RP1=0, select bank0
  3467  0DD6  01C3               	clrf	___awmod@sign
  3468  0DD7                     l2441:
  3469  0DD7  1FC1               	btfss	___awmod@dividend+1,7
  3470  0DD8  2DDA               	goto	u2081
  3471  0DD9  2DDB               	goto	u2080
  3472  0DDA                     u2081:
  3473  0DDA  2DE2               	goto	l2447
  3474  0DDB                     u2080:
  3475  0DDB                     l2443:
  3476  0DDB  09C0               	comf	___awmod@dividend,f
  3477  0DDC  09C1               	comf	___awmod@dividend+1,f
  3478  0DDD  0AC0               	incf	___awmod@dividend,f
  3479  0DDE  1903               	skipnz
  3480  0DDF  0AC1               	incf	___awmod@dividend+1,f
  3481  0DE0                     l2445:
  3482  0DE0  01C3               	clrf	___awmod@sign
  3483  0DE1  0AC3               	incf	___awmod@sign,f
  3484  0DE2                     l2447:
  3485  0DE2  1FBF               	btfss	___awmod@divisor+1,7
  3486  0DE3  2DE5               	goto	u2091
  3487  0DE4  2DE6               	goto	u2090
  3488  0DE5                     u2091:
  3489  0DE5  2DEB               	goto	l2451
  3490  0DE6                     u2090:
  3491  0DE6                     l2449:
  3492  0DE6  09BE               	comf	___awmod@divisor,f
  3493  0DE7  09BF               	comf	___awmod@divisor+1,f
  3494  0DE8  0ABE               	incf	___awmod@divisor,f
  3495  0DE9  1903               	skipnz
  3496  0DEA  0ABF               	incf	___awmod@divisor+1,f
  3497  0DEB                     l2451:
  3498  0DEB  083E               	movf	___awmod@divisor,w
  3499  0DEC  043F               	iorwf	___awmod@divisor+1,w
  3500  0DED  1903               	btfsc	3,2
  3501  0DEE  2DF0               	goto	u2101
  3502  0DEF  2DF1               	goto	u2100
  3503  0DF0                     u2101:
  3504  0DF0  2E20               	goto	l2469
  3505  0DF1                     u2100:
  3506  0DF1                     l2453:
  3507  0DF1  01C2               	clrf	___awmod@counter
  3508  0DF2  0AC2               	incf	___awmod@counter,f
  3509  0DF3  2DFF               	goto	l2459
  3510  0DF4                     l2455:
  3511  0DF4  3001               	movlw	1
  3512  0DF5                     u2115:
  3513  0DF5  1003               	clrc
  3514  0DF6  0DBE               	rlf	___awmod@divisor,f
  3515  0DF7  0DBF               	rlf	___awmod@divisor+1,f
  3516  0DF8  3EFF               	addlw	-1
  3517  0DF9  1D03               	skipz
  3518  0DFA  2DF5               	goto	u2115
  3519  0DFB                     l2457:
  3520  0DFB  3001               	movlw	1
  3521  0DFC  00F8               	movwf	??___awmod
  3522  0DFD  0878               	movf	??___awmod,w
  3523  0DFE  07C2               	addwf	___awmod@counter,f
  3524  0DFF                     l2459:
  3525  0DFF  1FBF               	btfss	___awmod@divisor+1,7
  3526  0E00  2E02               	goto	u2121
  3527  0E01  2E03               	goto	u2120
  3528  0E02                     u2121:
  3529  0E02  2DF4               	goto	l2455
  3530  0E03                     u2120:
  3531  0E03                     l2461:
  3532  0E03  083F               	movf	___awmod@divisor+1,w
  3533  0E04  0241               	subwf	___awmod@dividend+1,w
  3534  0E05  1D03               	skipz
  3535  0E06  2E09               	goto	u2135
  3536  0E07  083E               	movf	___awmod@divisor,w
  3537  0E08  0240               	subwf	___awmod@dividend,w
  3538  0E09                     u2135:
  3539  0E09  1C03               	skipc
  3540  0E0A  2E0C               	goto	u2131
  3541  0E0B  2E0D               	goto	u2130
  3542  0E0C                     u2131:
  3543  0E0C  2E13               	goto	l2465
  3544  0E0D                     u2130:
  3545  0E0D                     l2463:
  3546  0E0D  083E               	movf	___awmod@divisor,w
  3547  0E0E  02C0               	subwf	___awmod@dividend,f
  3548  0E0F  083F               	movf	___awmod@divisor+1,w
  3549  0E10  1C03               	skipc
  3550  0E11  03C1               	decf	___awmod@dividend+1,f
  3551  0E12  02C1               	subwf	___awmod@dividend+1,f
  3552  0E13                     l2465:
  3553  0E13  3001               	movlw	1
  3554  0E14                     u2145:
  3555  0E14  1003               	clrc
  3556  0E15  0CBF               	rrf	___awmod@divisor+1,f
  3557  0E16  0CBE               	rrf	___awmod@divisor,f
  3558  0E17  3EFF               	addlw	-1
  3559  0E18  1D03               	skipz
  3560  0E19  2E14               	goto	u2145
  3561  0E1A                     l2467:
  3562  0E1A  3001               	movlw	1
  3563  0E1B  02C2               	subwf	___awmod@counter,f
  3564  0E1C  1D03               	btfss	3,2
  3565  0E1D  2E1F               	goto	u2151
  3566  0E1E  2E20               	goto	u2150
  3567  0E1F                     u2151:
  3568  0E1F  2E03               	goto	l2461
  3569  0E20                     u2150:
  3570  0E20                     l2469:
  3571  0E20  0843               	movf	___awmod@sign,w
  3572  0E21  1903               	btfsc	3,2
  3573  0E22  2E24               	goto	u2161
  3574  0E23  2E25               	goto	u2160
  3575  0E24                     u2161:
  3576  0E24  2E2A               	goto	l2473
  3577  0E25                     u2160:
  3578  0E25                     l2471:
  3579  0E25  09C0               	comf	___awmod@dividend,f
  3580  0E26  09C1               	comf	___awmod@dividend+1,f
  3581  0E27  0AC0               	incf	___awmod@dividend,f
  3582  0E28  1903               	skipnz
  3583  0E29  0AC1               	incf	___awmod@dividend+1,f
  3584  0E2A                     l2473:
  3585  0E2A  0841               	movf	___awmod@dividend+1,w
  3586  0E2B  00BF               	movwf	?___awmod+1
  3587  0E2C  0840               	movf	___awmod@dividend,w
  3588  0E2D  00BE               	movwf	?___awmod
  3589  0E2E                     l563:
  3590  0E2E  0008               	return
  3591  0E2F                     __end_of___awmod:
  3592                           
  3593                           	psect	text8
  3594  0E92                     __ptext8:	
  3595 ;; *************** function ___awdiv *****************
  3596 ;; Defined at:
  3597 ;;		line 5 in file "C:\Program Files\Microchip\xc8\v2.32\pic\sources\c90\common\awdiv.c"
  3598 ;; Parameters:    Size  Location     Type
  3599 ;;  divisor         2    3[COMMON] int 
  3600 ;;  dividend        2    5[COMMON] int 
  3601 ;; Auto vars:     Size  Location     Type
  3602 ;;  quotient        2    2[BANK0 ] int 
  3603 ;;  sign            1    1[BANK0 ] unsigned char 
  3604 ;;  counter         1    0[BANK0 ] unsigned char 
  3605 ;; Return value:  Size  Location     Type
  3606 ;;                  2    3[COMMON] int 
  3607 ;; Registers used:
  3608 ;;		wreg, status,2, status,0
  3609 ;; Tracked objects:
  3610 ;;		On entry : 0/0
  3611 ;;		On exit  : 0/0
  3612 ;;		Unchanged: 0/0
  3613 ;; Data sizes:     COMMON   BANK0   BANK1   BANK3   BANK2
  3614 ;;      Params:         4       0       0       0       0
  3615 ;;      Locals:         0       4       0       0       0
  3616 ;;      Temps:          1       0       0       0       0
  3617 ;;      Totals:         5       4       0       0       0
  3618 ;;Total ram usage:        9 bytes
  3619 ;; Hardware stack levels used: 1
  3620 ;; Hardware stack levels required when called: 1
  3621 ;; This function calls:
  3622 ;;		Nothing
  3623 ;; This function is called by:
  3624 ;;		_set_time
  3625 ;;		_time_display_screen
  3626 ;;		_set_temp
  3627 ;; This function uses a non-reentrant model
  3628 ;;
  3629                           
  3630                           
  3631                           ;psect for function ___awdiv
  3632  0E92                     ___awdiv:
  3633  0E92                     l1865:	
  3634                           ;incstack = 0
  3635                           ; Regs used in ___awdiv: [wreg+status,2+status,0]
  3636                           
  3637  0E92  1283               	bcf	3,5	;RP0=0, select bank0
  3638  0E93  1303               	bcf	3,6	;RP1=0, select bank0
  3639  0E94  01BB               	clrf	___awdiv@sign
  3640  0E95                     l1867:
  3641  0E95  1FF4               	btfss	___awdiv@divisor+1,7
  3642  0E96  2E98               	goto	u1271
  3643  0E97  2E99               	goto	u1270
  3644  0E98                     u1271:
  3645  0E98  2EA0               	goto	l1873
  3646  0E99                     u1270:
  3647  0E99                     l1869:
  3648  0E99  09F3               	comf	___awdiv@divisor,f
  3649  0E9A  09F4               	comf	___awdiv@divisor+1,f
  3650  0E9B  0AF3               	incf	___awdiv@divisor,f
  3651  0E9C  1903               	skipnz
  3652  0E9D  0AF4               	incf	___awdiv@divisor+1,f
  3653  0E9E                     l1871:
  3654  0E9E  01BB               	clrf	___awdiv@sign
  3655  0E9F  0ABB               	incf	___awdiv@sign,f
  3656  0EA0                     l1873:
  3657  0EA0  1FF6               	btfss	___awdiv@dividend+1,7
  3658  0EA1  2EA3               	goto	u1281
  3659  0EA2  2EA4               	goto	u1280
  3660  0EA3                     u1281:
  3661  0EA3  2EAD               	goto	l1879
  3662  0EA4                     u1280:
  3663  0EA4                     l1875:
  3664  0EA4  09F5               	comf	___awdiv@dividend,f
  3665  0EA5  09F6               	comf	___awdiv@dividend+1,f
  3666  0EA6  0AF5               	incf	___awdiv@dividend,f
  3667  0EA7  1903               	skipnz
  3668  0EA8  0AF6               	incf	___awdiv@dividend+1,f
  3669  0EA9                     l1877:
  3670  0EA9  3001               	movlw	1
  3671  0EAA  00F7               	movwf	??___awdiv
  3672  0EAB  0877               	movf	??___awdiv,w
  3673  0EAC  06BB               	xorwf	___awdiv@sign,f
  3674  0EAD                     l1879:
  3675  0EAD  01BC               	clrf	___awdiv@quotient
  3676  0EAE  01BD               	clrf	___awdiv@quotient+1
  3677  0EAF                     l1881:
  3678  0EAF  0873               	movf	___awdiv@divisor,w
  3679  0EB0  0474               	iorwf	___awdiv@divisor+1,w
  3680  0EB1  1903               	btfsc	3,2
  3681  0EB2  2EB4               	goto	u1291
  3682  0EB3  2EB5               	goto	u1290
  3683  0EB4                     u1291:
  3684  0EB4  2EEC               	goto	l1901
  3685  0EB5                     u1290:
  3686  0EB5                     l1883:
  3687  0EB5  01BA               	clrf	___awdiv@counter
  3688  0EB6  0ABA               	incf	___awdiv@counter,f
  3689  0EB7  2EC3               	goto	l1889
  3690  0EB8                     l1885:
  3691  0EB8  3001               	movlw	1
  3692  0EB9                     u1305:
  3693  0EB9  1003               	clrc
  3694  0EBA  0DF3               	rlf	___awdiv@divisor,f
  3695  0EBB  0DF4               	rlf	___awdiv@divisor+1,f
  3696  0EBC  3EFF               	addlw	-1
  3697  0EBD  1D03               	skipz
  3698  0EBE  2EB9               	goto	u1305
  3699  0EBF                     l1887:
  3700  0EBF  3001               	movlw	1
  3701  0EC0  00F7               	movwf	??___awdiv
  3702  0EC1  0877               	movf	??___awdiv,w
  3703  0EC2  07BA               	addwf	___awdiv@counter,f
  3704  0EC3                     l1889:
  3705  0EC3  1FF4               	btfss	___awdiv@divisor+1,7
  3706  0EC4  2EC6               	goto	u1311
  3707  0EC5  2EC7               	goto	u1310
  3708  0EC6                     u1311:
  3709  0EC6  2EB8               	goto	l1885
  3710  0EC7                     u1310:
  3711  0EC7                     l1891:
  3712  0EC7  3001               	movlw	1
  3713  0EC8                     u1325:
  3714  0EC8  1003               	clrc
  3715  0EC9  0DBC               	rlf	___awdiv@quotient,f
  3716  0ECA  0DBD               	rlf	___awdiv@quotient+1,f
  3717  0ECB  3EFF               	addlw	-1
  3718  0ECC  1D03               	skipz
  3719  0ECD  2EC8               	goto	u1325
  3720  0ECE  0874               	movf	___awdiv@divisor+1,w
  3721  0ECF  0276               	subwf	___awdiv@dividend+1,w
  3722  0ED0  1D03               	skipz
  3723  0ED1  2ED4               	goto	u1335
  3724  0ED2  0873               	movf	___awdiv@divisor,w
  3725  0ED3  0275               	subwf	___awdiv@dividend,w
  3726  0ED4                     u1335:
  3727  0ED4  1C03               	skipc
  3728  0ED5  2ED7               	goto	u1331
  3729  0ED6  2ED8               	goto	u1330
  3730  0ED7                     u1331:
  3731  0ED7  2EDF               	goto	l1897
  3732  0ED8                     u1330:
  3733  0ED8                     l1893:
  3734  0ED8  0873               	movf	___awdiv@divisor,w
  3735  0ED9  02F5               	subwf	___awdiv@dividend,f
  3736  0EDA  0874               	movf	___awdiv@divisor+1,w
  3737  0EDB  1C03               	skipc
  3738  0EDC  03F6               	decf	___awdiv@dividend+1,f
  3739  0EDD  02F6               	subwf	___awdiv@dividend+1,f
  3740  0EDE                     l1895:
  3741  0EDE  143C               	bsf	___awdiv@quotient,0
  3742  0EDF                     l1897:
  3743  0EDF  3001               	movlw	1
  3744  0EE0                     u1345:
  3745  0EE0  1003               	clrc
  3746  0EE1  0CF4               	rrf	___awdiv@divisor+1,f
  3747  0EE2  0CF3               	rrf	___awdiv@divisor,f
  3748  0EE3  3EFF               	addlw	-1
  3749  0EE4  1D03               	skipz
  3750  0EE5  2EE0               	goto	u1345
  3751  0EE6                     l1899:
  3752  0EE6  3001               	movlw	1
  3753  0EE7  02BA               	subwf	___awdiv@counter,f
  3754  0EE8  1D03               	btfss	3,2
  3755  0EE9  2EEB               	goto	u1351
  3756  0EEA  2EEC               	goto	u1350
  3757  0EEB                     u1351:
  3758  0EEB  2EC7               	goto	l1891
  3759  0EEC                     u1350:
  3760  0EEC                     l1901:
  3761  0EEC  083B               	movf	___awdiv@sign,w
  3762  0EED  1903               	btfsc	3,2
  3763  0EEE  2EF0               	goto	u1361
  3764  0EEF  2EF1               	goto	u1360
  3765  0EF0                     u1361:
  3766  0EF0  2EF6               	goto	l1905
  3767  0EF1                     u1360:
  3768  0EF1                     l1903:
  3769  0EF1  09BC               	comf	___awdiv@quotient,f
  3770  0EF2  09BD               	comf	___awdiv@quotient+1,f
  3771  0EF3  0ABC               	incf	___awdiv@quotient,f
  3772  0EF4  1903               	skipnz
  3773  0EF5  0ABD               	incf	___awdiv@quotient+1,f
  3774  0EF6                     l1905:
  3775  0EF6  083D               	movf	___awdiv@quotient+1,w
  3776  0EF7  00F4               	movwf	?___awdiv+1
  3777  0EF8  083C               	movf	___awdiv@quotient,w
  3778  0EF9  00F3               	movwf	?___awdiv
  3779  0EFA                     l550:
  3780  0EFA  0008               	return
  3781  0EFB                     __end_of___awdiv:
  3782                           
  3783                           	psect	text9
  3784  0D0F                     __ptext9:	
  3785 ;; *************** function _read_matrix_keypad *****************
  3786 ;; Defined at:
  3787 ;;		line 108 in file "matrix_keypad.c"
  3788 ;; Parameters:    Size  Location     Type
  3789 ;;  mode            1    wreg     unsigned char 
  3790 ;; Auto vars:     Size  Location     Type
  3791 ;;  mode            1    6[COMMON] unsigned char 
  3792 ;;  key             1    7[COMMON] unsigned char 
  3793 ;; Return value:  Size  Location     Type
  3794 ;;                  1    wreg      unsigned char 
  3795 ;; Registers used:
  3796 ;;		wreg, status,2, status,0, pclath, cstack
  3797 ;; Tracked objects:
  3798 ;;		On entry : 0/0
  3799 ;;		On exit  : 0/0
  3800 ;;		Unchanged: 0/0
  3801 ;; Data sizes:     COMMON   BANK0   BANK1   BANK3   BANK2
  3802 ;;      Params:         0       0       0       0       0
  3803 ;;      Locals:         2       0       0       0       0
  3804 ;;      Temps:          1       0       0       0       0
  3805 ;;      Totals:         3       0       0       0       0
  3806 ;;Total ram usage:        3 bytes
  3807 ;; Hardware stack levels used: 1
  3808 ;; Hardware stack levels required when called: 2
  3809 ;; This function calls:
  3810 ;;		_scan_keypad
  3811 ;; This function is called by:
  3812 ;;		_main
  3813 ;; This function uses a non-reentrant model
  3814 ;;
  3815                           
  3816                           
  3817                           ;psect for function _read_matrix_keypad
  3818  0D0F                     _read_matrix_keypad:
  3819                           
  3820                           ;incstack = 0
  3821                           ; Regs used in _read_matrix_keypad: [wreg+status,2+status,0+pclath+cstack]
  3822                           ;read_matrix_keypad@mode stored from wreg
  3823  0D0F  00F6               	movwf	read_matrix_keypad@mode
  3824  0D10                     l1991:
  3825                           
  3826                           ;matrix_keypad.c: 108: unsigned char read_matrix_keypad(unsigned char mode);matrix_keypa
      +                          d.c: 109: {;matrix_keypad.c: 110:     static unsigned char once = 1;;matrix_keypad.c: 11
      +                          1:     unsigned char key;;matrix_keypad.c: 113:     key = scan_keypad();
  3827  0D10  120A  118A  2708  120A  158A  	fcall	_scan_keypad
  3828  0D15  00F5               	movwf	??_read_matrix_keypad
  3829  0D16  0875               	movf	??_read_matrix_keypad,w
  3830  0D17  00F7               	movwf	read_matrix_keypad@key
  3831  0D18                     l1993:
  3832                           
  3833                           ;matrix_keypad.c: 116:     if (mode == 0)
  3834  0D18  0876               	movf	read_matrix_keypad@mode,w
  3835  0D19  1D03               	btfss	3,2
  3836  0D1A  2D1C               	goto	u1481
  3837  0D1B  2D1D               	goto	u1480
  3838  0D1C                     u1481:
  3839  0D1C  2D1F               	goto	l2001
  3840  0D1D                     u1480:
  3841  0D1D                     l1995:
  3842                           
  3843                           ;matrix_keypad.c: 117:     {;matrix_keypad.c: 118:         return key;
  3844  0D1D  0877               	movf	read_matrix_keypad@key,w
  3845  0D1E  2D33               	goto	l276
  3846  0D1F                     l2001:
  3847                           
  3848                           ;matrix_keypad.c: 121:     {;matrix_keypad.c: 122:         if ((key != 0xFF) && once)
  3849  0D1F  0A77               	incf	read_matrix_keypad@key,w
  3850  0D20  1903               	btfsc	3,2
  3851  0D21  2D23               	goto	u1491
  3852  0D22  2D24               	goto	u1490
  3853  0D23                     u1491:
  3854  0D23  2D2B               	goto	l2013
  3855  0D24                     u1490:
  3856  0D24                     l2003:
  3857  0D24  087A               	movf	read_matrix_keypad@once,w
  3858  0D25  1903               	btfsc	3,2
  3859  0D26  2D28               	goto	u1501
  3860  0D27  2D29               	goto	u1500
  3861  0D28                     u1501:
  3862  0D28  2D2B               	goto	l2013
  3863  0D29                     u1500:
  3864  0D29                     l2005:
  3865                           
  3866                           ;matrix_keypad.c: 123:         {;matrix_keypad.c: 124:             once = 0;
  3867  0D29  01FA               	clrf	read_matrix_keypad@once
  3868  0D2A  2D1D               	goto	l1995
  3869  0D2B                     l2013:
  3870  0D2B  0A77               	incf	read_matrix_keypad@key,w
  3871  0D2C  1D03               	btfss	3,2
  3872  0D2D  2D2F               	goto	u1511
  3873  0D2E  2D30               	goto	u1510
  3874  0D2F                     u1511:
  3875  0D2F  2D32               	goto	l2017
  3876  0D30                     u1510:
  3877  0D30                     l2015:
  3878                           
  3879                           ;matrix_keypad.c: 129:         {;matrix_keypad.c: 130:             once = 1;
  3880  0D30  01FA               	clrf	read_matrix_keypad@once
  3881  0D31  0AFA               	incf	read_matrix_keypad@once,f
  3882  0D32                     l2017:
  3883                           
  3884                           ;matrix_keypad.c: 134:     return 0xFF;
  3885  0D32  30FF               	movlw	255
  3886  0D33                     l276:
  3887  0D33  0008               	return
  3888  0D34                     __end_of_read_matrix_keypad:
  3889                           
  3890                           	psect	text10
  3891  0708                     __ptext10:	
  3892 ;; *************** function _scan_keypad *****************
  3893 ;; Defined at:
  3894 ;;		line 21 in file "matrix_keypad.c"
  3895 ;; Parameters:    Size  Location     Type
  3896 ;;		None
  3897 ;; Auto vars:     Size  Location     Type
  3898 ;;  i               2    3[COMMON] int 
  3899 ;; Return value:  Size  Location     Type
  3900 ;;                  1    wreg      unsigned char 
  3901 ;; Registers used:
  3902 ;;		wreg, status,2, status,0
  3903 ;; Tracked objects:
  3904 ;;		On entry : 0/0
  3905 ;;		On exit  : 0/0
  3906 ;;		Unchanged: 0/0
  3907 ;; Data sizes:     COMMON   BANK0   BANK1   BANK3   BANK2
  3908 ;;      Params:         0       0       0       0       0
  3909 ;;      Locals:         2       0       0       0       0
  3910 ;;      Temps:          0       0       0       0       0
  3911 ;;      Totals:         2       0       0       0       0
  3912 ;;Total ram usage:        2 bytes
  3913 ;; Hardware stack levels used: 1
  3914 ;; Hardware stack levels required when called: 1
  3915 ;; This function calls:
  3916 ;;		Nothing
  3917 ;; This function is called by:
  3918 ;;		_read_matrix_keypad
  3919 ;; This function uses a non-reentrant model
  3920 ;;
  3921                           
  3922                           
  3923                           ;psect for function _scan_keypad
  3924  0708                     _scan_keypad:
  3925  0708                     l1765:	
  3926                           ;incstack = 0
  3927                           ; Regs used in _scan_keypad: [wreg+status,2+status,0]
  3928                           
  3929                           
  3930                           ;matrix_keypad.c: 23:     int i;;matrix_keypad.c: 25:     RD3 = 0;
  3931  0708  1283               	bcf	3,5	;RP0=0, select bank0
  3932  0709  1303               	bcf	3,6	;RP1=0, select bank0
  3933  070A  1188               	bcf	8,3	;volatile
  3934                           
  3935                           ;matrix_keypad.c: 26:     RD2 = 1;
  3936  070B  1508               	bsf	8,2	;volatile
  3937                           
  3938                           ;matrix_keypad.c: 27:     RD1 = 1;
  3939  070C  1488               	bsf	8,1	;volatile
  3940                           
  3941                           ;matrix_keypad.c: 28:     RD0 = 1;
  3942  070D  1408               	bsf	8,0	;volatile
  3943  070E                     l1767:
  3944                           
  3945                           ;matrix_keypad.c: 30:     for (i = 100; i--; );
  3946  070E  3064               	movlw	100
  3947  070F  00F3               	movwf	scan_keypad@i
  3948  0710  3000               	movlw	0
  3949  0711  00F4               	movwf	scan_keypad@i+1
  3950  0712                     l1769:
  3951  0712  30FF               	movlw	255
  3952  0713  07F3               	addwf	scan_keypad@i,f
  3953  0714  1803               	skipnc
  3954  0715  0AF4               	incf	scan_keypad@i+1,f
  3955  0716  30FF               	movlw	255
  3956  0717  07F4               	addwf	scan_keypad@i+1,f
  3957  0718  0A73               	incf	scan_keypad@i,w
  3958  0719  1D03               	skipz
  3959  071A  2F1F               	goto	u1091
  3960  071B  0A74               	incf	scan_keypad@i+1,w
  3961  071C  1D03               	btfss	3,2
  3962  071D  2F1F               	goto	u1091
  3963  071E  2F20               	goto	u1090
  3964  071F                     u1091:
  3965  071F  2F12               	goto	l1769
  3966  0720                     u1090:
  3967  0720                     l240:
  3968                           
  3969                           ;matrix_keypad.c: 32:     if (RB0 == 0)
  3970  0720  1283               	bcf	3,5	;RP0=0, select bank0
  3971  0721  1303               	bcf	3,6	;RP1=0, select bank0
  3972  0722  1806               	btfsc	6,0	;volatile
  3973  0723  2F25               	goto	u1101
  3974  0724  2F26               	goto	u1100
  3975  0725                     u1101:
  3976  0725  2F28               	goto	l241
  3977  0726                     u1100:
  3978  0726                     l1771:
  3979                           
  3980                           ;matrix_keypad.c: 33:     {;matrix_keypad.c: 34:         return 1;
  3981  0726  3001               	movlw	1
  3982  0727  2FB3               	goto	l242
  3983  0728                     l241:	
  3984                           ;matrix_keypad.c: 36:     else if (RB1 == 0)
  3985                           
  3986  0728  1886               	btfsc	6,1	;volatile
  3987  0729  2F2B               	goto	u1111
  3988  072A  2F2C               	goto	u1110
  3989  072B                     u1111:
  3990  072B  2F2E               	goto	l244
  3991  072C                     u1110:
  3992  072C                     l1777:
  3993                           
  3994                           ;matrix_keypad.c: 37:     {;matrix_keypad.c: 38:         return 2;
  3995  072C  3002               	movlw	2
  3996  072D  2FB3               	goto	l242
  3997  072E                     l244:	
  3998                           ;matrix_keypad.c: 40:     else if (RB2 == 0)
  3999                           
  4000  072E  1906               	btfsc	6,2	;volatile
  4001  072F  2F31               	goto	u1121
  4002  0730  2F32               	goto	u1120
  4003  0731                     u1121:
  4004  0731  2F34               	goto	l243
  4005  0732                     u1120:
  4006  0732                     l1783:
  4007                           
  4008                           ;matrix_keypad.c: 41:     {;matrix_keypad.c: 42:         return 3;
  4009  0732  3003               	movlw	3
  4010  0733  2FB3               	goto	l242
  4011  0734                     l243:
  4012                           
  4013                           ;matrix_keypad.c: 45:     RD3 = 1;
  4014  0734  1588               	bsf	8,3	;volatile
  4015                           
  4016                           ;matrix_keypad.c: 46:     RD2 = 0;
  4017  0735  1108               	bcf	8,2	;volatile
  4018                           
  4019                           ;matrix_keypad.c: 47:     RD1 = 1;
  4020  0736  1488               	bsf	8,1	;volatile
  4021                           
  4022                           ;matrix_keypad.c: 48:     RD0 = 1;
  4023  0737  1408               	bsf	8,0	;volatile
  4024  0738                     l1787:
  4025                           
  4026                           ;matrix_keypad.c: 50:     for (i = 100; i--; );
  4027  0738  3064               	movlw	100
  4028  0739  00F3               	movwf	scan_keypad@i
  4029  073A  3000               	movlw	0
  4030  073B  00F4               	movwf	scan_keypad@i+1
  4031  073C                     l1789:
  4032  073C  30FF               	movlw	255
  4033  073D  07F3               	addwf	scan_keypad@i,f
  4034  073E  1803               	skipnc
  4035  073F  0AF4               	incf	scan_keypad@i+1,f
  4036  0740  30FF               	movlw	255
  4037  0741  07F4               	addwf	scan_keypad@i+1,f
  4038  0742  0A73               	incf	scan_keypad@i,w
  4039  0743  1D03               	skipz
  4040  0744  2F49               	goto	u1131
  4041  0745  0A74               	incf	scan_keypad@i+1,w
  4042  0746  1D03               	btfss	3,2
  4043  0747  2F49               	goto	u1131
  4044  0748  2F4A               	goto	u1130
  4045  0749                     u1131:
  4046  0749  2F3C               	goto	l1789
  4047  074A                     u1130:
  4048  074A                     l249:
  4049                           
  4050                           ;matrix_keypad.c: 52:     if (RB0 == 0)
  4051  074A  1283               	bcf	3,5	;RP0=0, select bank0
  4052  074B  1303               	bcf	3,6	;RP1=0, select bank0
  4053  074C  1806               	btfsc	6,0	;volatile
  4054  074D  2F4F               	goto	u1141
  4055  074E  2F50               	goto	u1140
  4056  074F                     u1141:
  4057  074F  2F52               	goto	l250
  4058  0750                     u1140:
  4059  0750                     l1791:
  4060                           
  4061                           ;matrix_keypad.c: 53:     {;matrix_keypad.c: 54:         return 4;
  4062  0750  3004               	movlw	4
  4063  0751  2FB3               	goto	l242
  4064  0752                     l250:	
  4065                           ;matrix_keypad.c: 56:     else if (RB1 == 0)
  4066                           
  4067  0752  1886               	btfsc	6,1	;volatile
  4068  0753  2F55               	goto	u1151
  4069  0754  2F56               	goto	u1150
  4070  0755                     u1151:
  4071  0755  2F58               	goto	l252
  4072  0756                     u1150:
  4073  0756                     l1797:
  4074                           
  4075                           ;matrix_keypad.c: 57:     {;matrix_keypad.c: 58:         return 5;
  4076  0756  3005               	movlw	5
  4077  0757  2FB3               	goto	l242
  4078  0758                     l252:	
  4079                           ;matrix_keypad.c: 60:     else if (RB2 == 0)
  4080                           
  4081  0758  1906               	btfsc	6,2	;volatile
  4082  0759  2F5B               	goto	u1161
  4083  075A  2F5C               	goto	u1160
  4084  075B                     u1161:
  4085  075B  2F5E               	goto	l251
  4086  075C                     u1160:
  4087  075C                     l1803:
  4088                           
  4089                           ;matrix_keypad.c: 61:     {;matrix_keypad.c: 62:         return 6;
  4090  075C  3006               	movlw	6
  4091  075D  2FB3               	goto	l242
  4092  075E                     l251:
  4093                           
  4094                           ;matrix_keypad.c: 65:     RD3 = 1;
  4095  075E  1588               	bsf	8,3	;volatile
  4096                           
  4097                           ;matrix_keypad.c: 66:     RD2 = 1;
  4098  075F  1508               	bsf	8,2	;volatile
  4099                           
  4100                           ;matrix_keypad.c: 67:     RD1 = 0;
  4101  0760  1088               	bcf	8,1	;volatile
  4102                           
  4103                           ;matrix_keypad.c: 68:     RD0 = 1;
  4104  0761  1408               	bsf	8,0	;volatile
  4105  0762                     l1807:
  4106                           
  4107                           ;matrix_keypad.c: 70:     for (i = 100; i--; );
  4108  0762  3064               	movlw	100
  4109  0763  00F3               	movwf	scan_keypad@i
  4110  0764  3000               	movlw	0
  4111  0765  00F4               	movwf	scan_keypad@i+1
  4112  0766                     l1809:
  4113  0766  30FF               	movlw	255
  4114  0767  07F3               	addwf	scan_keypad@i,f
  4115  0768  1803               	skipnc
  4116  0769  0AF4               	incf	scan_keypad@i+1,f
  4117  076A  30FF               	movlw	255
  4118  076B  07F4               	addwf	scan_keypad@i+1,f
  4119  076C  0A73               	incf	scan_keypad@i,w
  4120  076D  1D03               	skipz
  4121  076E  2F73               	goto	u1171
  4122  076F  0A74               	incf	scan_keypad@i+1,w
  4123  0770  1D03               	btfss	3,2
  4124  0771  2F73               	goto	u1171
  4125  0772  2F74               	goto	u1170
  4126  0773                     u1171:
  4127  0773  2F66               	goto	l1809
  4128  0774                     u1170:
  4129  0774                     l257:
  4130                           
  4131                           ;matrix_keypad.c: 72:     if (RB0 == 0)
  4132  0774  1283               	bcf	3,5	;RP0=0, select bank0
  4133  0775  1303               	bcf	3,6	;RP1=0, select bank0
  4134  0776  1806               	btfsc	6,0	;volatile
  4135  0777  2F79               	goto	u1181
  4136  0778  2F7A               	goto	u1180
  4137  0779                     u1181:
  4138  0779  2F7C               	goto	l258
  4139  077A                     u1180:
  4140  077A                     l1811:
  4141                           
  4142                           ;matrix_keypad.c: 73:     {;matrix_keypad.c: 74:         return 7;
  4143  077A  3007               	movlw	7
  4144  077B  2FB3               	goto	l242
  4145  077C                     l258:	
  4146                           ;matrix_keypad.c: 76:     else if (RB1 == 0)
  4147                           
  4148  077C  1886               	btfsc	6,1	;volatile
  4149  077D  2F7F               	goto	u1191
  4150  077E  2F80               	goto	u1190
  4151  077F                     u1191:
  4152  077F  2F82               	goto	l260
  4153  0780                     u1190:
  4154  0780                     l1817:
  4155                           
  4156                           ;matrix_keypad.c: 77:     {;matrix_keypad.c: 78:         return 8;
  4157  0780  3008               	movlw	8
  4158  0781  2FB3               	goto	l242
  4159  0782                     l260:	
  4160                           ;matrix_keypad.c: 80:     else if (RB2 == 0)
  4161                           
  4162  0782  1906               	btfsc	6,2	;volatile
  4163  0783  2F85               	goto	u1201
  4164  0784  2F86               	goto	u1200
  4165  0785                     u1201:
  4166  0785  2F88               	goto	l259
  4167  0786                     u1200:
  4168  0786                     l1823:
  4169                           
  4170                           ;matrix_keypad.c: 81:     {;matrix_keypad.c: 82:         return 9;
  4171  0786  3009               	movlw	9
  4172  0787  2FB3               	goto	l242
  4173  0788                     l259:
  4174                           
  4175                           ;matrix_keypad.c: 85:     RD3 = 1;
  4176  0788  1588               	bsf	8,3	;volatile
  4177                           
  4178                           ;matrix_keypad.c: 86:     RD2 = 1;
  4179  0789  1508               	bsf	8,2	;volatile
  4180                           
  4181                           ;matrix_keypad.c: 87:     RD1 = 1;
  4182  078A  1488               	bsf	8,1	;volatile
  4183                           
  4184                           ;matrix_keypad.c: 88:     RD0 = 0;
  4185  078B  1008               	bcf	8,0	;volatile
  4186  078C                     l1827:
  4187                           
  4188                           ;matrix_keypad.c: 90:     for (i = 100; i--; );
  4189  078C  3064               	movlw	100
  4190  078D  00F3               	movwf	scan_keypad@i
  4191  078E  3000               	movlw	0
  4192  078F  00F4               	movwf	scan_keypad@i+1
  4193  0790                     l1829:
  4194  0790  30FF               	movlw	255
  4195  0791  07F3               	addwf	scan_keypad@i,f
  4196  0792  1803               	skipnc
  4197  0793  0AF4               	incf	scan_keypad@i+1,f
  4198  0794  30FF               	movlw	255
  4199  0795  07F4               	addwf	scan_keypad@i+1,f
  4200  0796  0A73               	incf	scan_keypad@i,w
  4201  0797  1D03               	skipz
  4202  0798  2F9D               	goto	u1211
  4203  0799  0A74               	incf	scan_keypad@i+1,w
  4204  079A  1D03               	btfss	3,2
  4205  079B  2F9D               	goto	u1211
  4206  079C  2F9E               	goto	u1210
  4207  079D                     u1211:
  4208  079D  2F90               	goto	l1829
  4209  079E                     u1210:
  4210  079E                     l265:
  4211                           
  4212                           ;matrix_keypad.c: 92:     if (RB0 == 0)
  4213  079E  1283               	bcf	3,5	;RP0=0, select bank0
  4214  079F  1303               	bcf	3,6	;RP1=0, select bank0
  4215  07A0  1806               	btfsc	6,0	;volatile
  4216  07A1  2FA3               	goto	u1221
  4217  07A2  2FA4               	goto	u1220
  4218  07A3                     u1221:
  4219  07A3  2FA6               	goto	l266
  4220  07A4                     u1220:
  4221  07A4                     l1831:
  4222                           
  4223                           ;matrix_keypad.c: 93:     {;matrix_keypad.c: 94:         return '*';
  4224  07A4  302A               	movlw	42
  4225  07A5  2FB3               	goto	l242
  4226  07A6                     l266:	
  4227                           ;matrix_keypad.c: 96:     else if (RB1 == 0)
  4228                           
  4229  07A6  1886               	btfsc	6,1	;volatile
  4230  07A7  2FA9               	goto	u1231
  4231  07A8  2FAA               	goto	u1230
  4232  07A9                     u1231:
  4233  07A9  2FAC               	goto	l268
  4234  07AA                     u1230:
  4235  07AA                     l1837:
  4236                           
  4237                           ;matrix_keypad.c: 97:     {;matrix_keypad.c: 98:         return 0;
  4238  07AA  3000               	movlw	0
  4239  07AB  2FB3               	goto	l242
  4240  07AC                     l268:	
  4241                           ;matrix_keypad.c: 100:     else if (RB2 == 0)
  4242                           
  4243  07AC  1906               	btfsc	6,2	;volatile
  4244  07AD  2FAF               	goto	u1241
  4245  07AE  2FB0               	goto	u1240
  4246  07AF                     u1241:
  4247  07AF  2FB2               	goto	l1847
  4248  07B0                     u1240:
  4249  07B0                     l1843:
  4250                           
  4251                           ;matrix_keypad.c: 101:     {;matrix_keypad.c: 102:         return '#';
  4252  07B0  3023               	movlw	35
  4253  07B1  2FB3               	goto	l242
  4254  07B2                     l1847:
  4255                           
  4256                           ;matrix_keypad.c: 105:     return 0xFF;
  4257  07B2  30FF               	movlw	255
  4258  07B3                     l242:
  4259  07B3  0008               	return
  4260  07B4                     __end_of_scan_keypad:
  4261                           
  4262                           	psect	text11
  4263  0537                     __ptext11:	
  4264 ;; *************** function _power_on_screen *****************
  4265 ;; Defined at:
  4266 ;;		line 185 in file "main.c"
  4267 ;; Parameters:    Size  Location     Type
  4268 ;;		None
  4269 ;; Auto vars:     Size  Location     Type
  4270 ;;  i               2   17[BANK0 ] int 
  4271 ;;  i               2   15[BANK0 ] int 
  4272 ;; Return value:  Size  Location     Type
  4273 ;;                  1    wreg      void 
  4274 ;; Registers used:
  4275 ;;		wreg, fsr0l, fsr0h, status,2, status,0, btemp+1, pclath, cstack
  4276 ;; Tracked objects:
  4277 ;;		On entry : 0/0
  4278 ;;		On exit  : 0/0
  4279 ;;		Unchanged: 0/0
  4280 ;; Data sizes:     COMMON   BANK0   BANK1   BANK3   BANK2
  4281 ;;      Params:         0       0       0       0       0
  4282 ;;      Locals:         0       4       0       0       0
  4283 ;;      Temps:          0       3       0       0       0
  4284 ;;      Totals:         0       7       0       0       0
  4285 ;;Total ram usage:        7 bytes
  4286 ;; Hardware stack levels used: 1
  4287 ;; Hardware stack levels required when called: 3
  4288 ;; This function calls:
  4289 ;;		_clcd_print
  4290 ;;		_clcd_putch
  4291 ;; This function is called by:
  4292 ;;		_main
  4293 ;; This function uses a non-reentrant model
  4294 ;;
  4295                           
  4296                           
  4297                           ;psect for function _power_on_screen
  4298  0537                     _power_on_screen:
  4299  0537                     l2477:	
  4300                           ;incstack = 0
  4301                           ; Regs used in _power_on_screen: [wreg-fsr0h+status,2+status,0+btemp+1+pclath+cstack]
  4302                           
  4303                           
  4304                           ;main.c: 187:      clcd_print("4.Start",(0xD0 + 0));
  4305  0537  1283               	bcf	3,5	;RP0=0, select bank0
  4306  0538  1303               	bcf	3,6	;RP1=0, select bank0
  4307  0539  01C9               	clrf	power_on_screen@i
  4308  053A  01CA               	clrf	power_on_screen@i+1
  4309  053B                     l2483:
  4310                           
  4311                           ;main.c: 188: ;main.c: 189: }
  4312  053B  1283               	bcf	3,5	;RP0=0, select bank0
  4313  053C  1303               	bcf	3,6	;RP1=0, select bank0
  4314  053D  0849               	movf	power_on_screen@i,w
  4315  053E  3E80               	addlw	128
  4316  053F  00C6               	movwf	??_power_on_screen
  4317  0540  0846               	movf	??_power_on_screen,w
  4318  0541  00C4               	movwf	clcd_putch@addr
  4319  0542  30FF               	movlw	255
  4320  0543  120A  158A  24D9  120A  118A  	fcall	_clcd_putch
  4321  0548                     l2485:
  4322                           
  4323                           ;main.c: 190: 
  4324  0548  3001               	movlw	1
  4325  0549  1283               	bcf	3,5	;RP0=0, select bank0
  4326  054A  1303               	bcf	3,6	;RP1=0, select bank0
  4327  054B  07C9               	addwf	power_on_screen@i,f
  4328  054C  1803               	skipnc
  4329  054D  0ACA               	incf	power_on_screen@i+1,f
  4330  054E  3000               	movlw	0
  4331  054F  07CA               	addwf	power_on_screen@i+1,f
  4332  0550                     l2487:
  4333  0550  084A               	movf	power_on_screen@i+1,w
  4334  0551  3A80               	xorlw	128
  4335  0552  00FF               	movwf	btemp+1
  4336  0553  3080               	movlw	128
  4337  0554  027F               	subwf	btemp+1,w
  4338  0555  1D03               	skipz
  4339  0556  2D59               	goto	u2175
  4340  0557  3010               	movlw	16
  4341  0558  0249               	subwf	power_on_screen@i,w
  4342  0559                     u2175:
  4343  0559  1C03               	skipc
  4344  055A  2D5C               	goto	u2171
  4345  055B  2D5D               	goto	u2170
  4346  055C                     u2171:
  4347  055C  2D3B               	goto	l2483
  4348  055D                     u2170:
  4349  055D                     l2489:
  4350                           
  4351                           ;main.c: 191: 
  4352  055D  3012               	movlw	low (STR_2| (0+32768))
  4353  055E  1283               	bcf	3,5	;RP0=0, select bank0
  4354  055F  1303               	bcf	3,6	;RP1=0, select bank0
  4355  0560  00BA               	movwf	clcd_print@str
  4356  0561  3086               	movlw	high (STR_2| (0+32768))
  4357  0562  00BB               	movwf	clcd_print@str+1
  4358  0563  30C0               	movlw	192
  4359  0564  00C6               	movwf	??_power_on_screen
  4360  0565  0846               	movf	??_power_on_screen,w
  4361  0566  00BC               	movwf	clcd_print@addr
  4362  0567  120A  158A  2534  120A  118A  	fcall	_clcd_print
  4363                           
  4364                           ;main.c: 192: void set_time (unsigned char key)
  4365  056C  3034               	movlw	low (STR_3| (0+32768))
  4366  056D  1283               	bcf	3,5	;RP0=0, select bank0
  4367  056E  1303               	bcf	3,6	;RP1=0, select bank0
  4368  056F  00BA               	movwf	clcd_print@str
  4369  0570  3086               	movlw	high (STR_3| (0+32768))
  4370  0571  00BB               	movwf	clcd_print@str+1
  4371  0572  3090               	movlw	144
  4372  0573  00C6               	movwf	??_power_on_screen
  4373  0574  0846               	movf	??_power_on_screen,w
  4374  0575  00BC               	movwf	clcd_print@addr
  4375  0576  120A  158A  2534  120A  118A  	fcall	_clcd_print
  4376  057B                     l2491:
  4377                           
  4378                           ;main.c: 193: {
  4379  057B  1283               	bcf	3,5	;RP0=0, select bank0
  4380  057C  1303               	bcf	3,6	;RP1=0, select bank0
  4381  057D  01CB               	clrf	power_on_screen@i_119
  4382  057E  01CC               	clrf	power_on_screen@i_119+1
  4383  057F                     l2497:
  4384                           
  4385                           ;main.c: 194:     static int wait , blink, key_count, blink_pos;;main.c: 195:     if (re
      +                          set_flag == 0x10)
  4386  057F  1283               	bcf	3,5	;RP0=0, select bank0
  4387  0580  1303               	bcf	3,6	;RP1=0, select bank0
  4388  0581  084B               	movf	power_on_screen@i_119,w
  4389  0582  3ED0               	addlw	208
  4390  0583  00C6               	movwf	??_power_on_screen
  4391  0584  0846               	movf	??_power_on_screen,w
  4392  0585  00C4               	movwf	clcd_putch@addr
  4393  0586  30FF               	movlw	255
  4394  0587  120A  158A  24D9  120A  118A  	fcall	_clcd_putch
  4395  058C                     l2499:
  4396                           
  4397                           ;main.c: 196:     {
  4398  058C  3001               	movlw	1
  4399  058D  1283               	bcf	3,5	;RP0=0, select bank0
  4400  058E  1303               	bcf	3,6	;RP1=0, select bank0
  4401  058F  07CB               	addwf	power_on_screen@i_119,f
  4402  0590  1803               	skipnc
  4403  0591  0ACC               	incf	power_on_screen@i_119+1,f
  4404  0592  3000               	movlw	0
  4405  0593  07CC               	addwf	power_on_screen@i_119+1,f
  4406  0594                     l2501:
  4407  0594  084C               	movf	power_on_screen@i_119+1,w
  4408  0595  3A80               	xorlw	128
  4409  0596  00FF               	movwf	btemp+1
  4410  0597  3080               	movlw	128
  4411  0598  027F               	subwf	btemp+1,w
  4412  0599  1D03               	skipz
  4413  059A  2D9D               	goto	u2185
  4414  059B  3010               	movlw	16
  4415  059C  024B               	subwf	power_on_screen@i_119,w
  4416  059D                     u2185:
  4417  059D  1C03               	skipc
  4418  059E  2DA0               	goto	u2181
  4419  059F  2DA1               	goto	u2180
  4420  05A0                     u2181:
  4421  05A0  2D7F               	goto	l2497
  4422  05A1                     u2180:
  4423  05A1                     l2503:
  4424                           
  4425                           ;main.c: 197:           wait = 15;
  4426  05A1  304D               	movlw	77
  4427  05A2  1283               	bcf	3,5	;RP0=0, select bank0
  4428  05A3  1303               	bcf	3,6	;RP1=0, select bank0
  4429  05A4  00C8               	movwf	??_power_on_screen+2
  4430  05A5  3019               	movlw	25
  4431  05A6  00C7               	movwf	??_power_on_screen+1
  4432  05A7  304F               	movlw	79
  4433  05A8  00C6               	movwf	??_power_on_screen
  4434  05A9                     u2707:
  4435  05A9  0BC6               	decfsz	??_power_on_screen,f
  4436  05AA  2DA9               	goto	u2707
  4437  05AB  0BC7               	decfsz	??_power_on_screen+1,f
  4438  05AC  2DA9               	goto	u2707
  4439  05AD  0BC8               	decfsz	??_power_on_screen+2,f
  4440  05AE  2DA9               	goto	u2707
  4441  05AF                     l116:
  4442  05AF  0008               	return
  4443  05B0                     __end_of_power_on_screen:
  4444                           
  4445                           	psect	text12
  4446  0CD9                     __ptext12:	
  4447 ;; *************** function _clcd_putch *****************
  4448 ;; Defined at:
  4449 ;;		line 56 in file "clcd.c"
  4450 ;; Parameters:    Size  Location     Type
  4451 ;;  data            1    wreg     const unsigned char 
  4452 ;;  addr            1   10[BANK0 ] unsigned char 
  4453 ;; Auto vars:     Size  Location     Type
  4454 ;;  data            1   11[BANK0 ] const unsigned char 
  4455 ;; Return value:  Size  Location     Type
  4456 ;;                  1    wreg      void 
  4457 ;; Registers used:
  4458 ;;		wreg, status,2, status,0, pclath, cstack
  4459 ;; Tracked objects:
  4460 ;;		On entry : 0/0
  4461 ;;		On exit  : 0/0
  4462 ;;		Unchanged: 0/0
  4463 ;; Data sizes:     COMMON   BANK0   BANK1   BANK3   BANK2
  4464 ;;      Params:         0       1       0       0       0
  4465 ;;      Locals:         0       1       0       0       0
  4466 ;;      Temps:          0       0       0       0       0
  4467 ;;      Totals:         0       2       0       0       0
  4468 ;;Total ram usage:        2 bytes
  4469 ;; Hardware stack levels used: 1
  4470 ;; Hardware stack levels required when called: 2
  4471 ;; This function calls:
  4472 ;;		_clcd_write
  4473 ;; This function is called by:
  4474 ;;		_power_on_screen
  4475 ;;		_set_time
  4476 ;;		_time_display_screen
  4477 ;;		_set_temp
  4478 ;; This function uses a non-reentrant model
  4479 ;;
  4480                           
  4481                           
  4482                           ;psect for function _clcd_putch
  4483  0CD9                     _clcd_putch:
  4484                           
  4485                           ;incstack = 0
  4486                           ; Regs used in _clcd_putch: [wreg+status,2+status,0+pclath+cstack]
  4487                           ;clcd_putch@data stored from wreg
  4488  0CD9  1283               	bcf	3,5	;RP0=0, select bank0
  4489  0CDA  1303               	bcf	3,6	;RP1=0, select bank0
  4490  0CDB  00C5               	movwf	clcd_putch@data
  4491  0CDC                     l1751:
  4492                           
  4493                           ;clcd.c: 56: void clcd_putch(const char data, unsigned char addr);clcd.c: 57: {;clcd.c: 
      +                          58:     clcd_write(addr, 0);
  4494  0CDC  01F3               	clrf	clcd_write@mode
  4495  0CDD  0844               	movf	clcd_putch@addr,w
  4496  0CDE  120A  158A  2567  120A  158A  	fcall	_clcd_write
  4497                           
  4498                           ;clcd.c: 59:     clcd_write(data, 1);
  4499  0CE3  01F3               	clrf	clcd_write@mode
  4500  0CE4  0AF3               	incf	clcd_write@mode,f
  4501  0CE5  1283               	bcf	3,5	;RP0=0, select bank0
  4502  0CE6  1303               	bcf	3,6	;RP1=0, select bank0
  4503  0CE7  0845               	movf	clcd_putch@data,w
  4504  0CE8  120A  158A  2567  120A  158A  	fcall	_clcd_write
  4505  0CED                     l206:
  4506  0CED  0008               	return
  4507  0CEE                     __end_of_clcd_putch:
  4508                           
  4509                           	psect	text13
  4510  0CEE                     __ptext13:	
  4511 ;; *************** function _init_config *****************
  4512 ;; Defined at:
  4513 ;;		line 21 in file "main.c"
  4514 ;; Parameters:    Size  Location     Type
  4515 ;;		None
  4516 ;; Auto vars:     Size  Location     Type
  4517 ;;		None
  4518 ;; Return value:  Size  Location     Type
  4519 ;;                  1    wreg      void 
  4520 ;; Registers used:
  4521 ;;		wreg, status,2, status,0, pclath, cstack
  4522 ;; Tracked objects:
  4523 ;;		On entry : 0/0
  4524 ;;		On exit  : 0/0
  4525 ;;		Unchanged: 0/0
  4526 ;; Data sizes:     COMMON   BANK0   BANK1   BANK3   BANK2
  4527 ;;      Params:         0       0       0       0       0
  4528 ;;      Locals:         0       0       0       0       0
  4529 ;;      Temps:          0       0       0       0       0
  4530 ;;      Totals:         0       0       0       0       0
  4531 ;;Total ram usage:        0 bytes
  4532 ;; Hardware stack levels used: 1
  4533 ;; Hardware stack levels required when called: 4
  4534 ;; This function calls:
  4535 ;;		_init_clcd
  4536 ;;		_init_matrix_keypad
  4537 ;;		_init_timer2
  4538 ;; This function is called by:
  4539 ;;		_main
  4540 ;; This function uses a non-reentrant model
  4541 ;;
  4542                           
  4543                           
  4544                           ;psect for function _init_config
  4545  0CEE                     _init_config:
  4546  0CEE                     l1947:	
  4547                           ;incstack = 0
  4548                           ; Regs used in _init_config: [wreg+status,2+status,0+pclath+cstack]
  4549                           
  4550                           
  4551                           ;main.c: 24: {
  4552  0CEE  120A  158A  24B1  120A  158A  	fcall	_init_clcd
  4553                           
  4554                           ;main.c: 25:     unsigned char key;
  4555  0CF3  120A  158A  24C9  120A  158A  	fcall	_init_matrix_keypad
  4556                           
  4557                           ;main.c: 26:     init_config();
  4558  0CF8  120A  158A  24BC  120A  158A  	fcall	_init_timer2
  4559  0CFD                     l1949:
  4560                           
  4561                           ;main.c: 28:     clear_clcd();
  4562  0CFD  170B               	bsf	11,6	;volatile
  4563  0CFE                     l1951:
  4564                           
  4565                           ;main.c: 29:     operation_mode = 0x01;
  4566  0CFE  178B               	bsf	11,7	;volatile
  4567  0CFF                     l1953:
  4568                           
  4569                           ;main.c: 32:     {
  4570  0CFF  1683               	bsf	3,5	;RP0=1, select bank1
  4571  0D00  1303               	bcf	3,6	;RP1=0, select bank1
  4572  0D01  1107               	bcf	7,2	;volatile
  4573  0D02                     l1955:
  4574                           
  4575                           ;main.c: 33: 
  4576  0D02  1283               	bcf	3,5	;RP0=0, select bank0
  4577  0D03  1303               	bcf	3,6	;RP1=0, select bank0
  4578  0D04  1107               	bcf	7,2	;volatile
  4579  0D05                     l1957:
  4580                           
  4581                           ;main.c: 35:         if (operation_mode == 0x02 || operation_mode == 0x03 || operation_m
      +                          ode == 0x04)
  4582  0D05  1683               	bsf	3,5	;RP0=1, select bank1
  4583  0D06  1303               	bcf	3,6	;RP1=0, select bank1
  4584  0D07  1087               	bcf	7,1	;volatile
  4585  0D08                     l1959:
  4586                           
  4587                           ;main.c: 36:         {
  4588  0D08  1283               	bcf	3,5	;RP0=0, select bank0
  4589  0D09  1303               	bcf	3,6	;RP1=0, select bank0
  4590  0D0A  1087               	bcf	7,1	;volatile
  4591  0D0B                     l1961:
  4592                           
  4593                           ;main.c: 38:         }
  4594  0D0B  1683               	bsf	3,5	;RP0=1, select bank1
  4595  0D0C  1303               	bcf	3,6	;RP1=0, select bank1
  4596  0D0D  1586               	bsf	6,3	;volatile
  4597  0D0E                     l63:
  4598  0D0E  0008               	return
  4599  0D0F                     __end_of_init_config:
  4600                           
  4601                           	psect	text14
  4602  0CBC                     __ptext14:	
  4603 ;; *************** function _init_timer2 *****************
  4604 ;; Defined at:
  4605 ;;		line 4 in file "timers.c"
  4606 ;; Parameters:    Size  Location     Type
  4607 ;;		None
  4608 ;; Auto vars:     Size  Location     Type
  4609 ;;		None
  4610 ;; Return value:  Size  Location     Type
  4611 ;;                  1    wreg      void 
  4612 ;; Registers used:
  4613 ;;		wreg
  4614 ;; Tracked objects:
  4615 ;;		On entry : 0/0
  4616 ;;		On exit  : 0/0
  4617 ;;		Unchanged: 0/0
  4618 ;; Data sizes:     COMMON   BANK0   BANK1   BANK3   BANK2
  4619 ;;      Params:         0       0       0       0       0
  4620 ;;      Locals:         0       0       0       0       0
  4621 ;;      Temps:          0       0       0       0       0
  4622 ;;      Totals:         0       0       0       0       0
  4623 ;;Total ram usage:        0 bytes
  4624 ;; Hardware stack levels used: 1
  4625 ;; Hardware stack levels required when called: 1
  4626 ;; This function calls:
  4627 ;;		Nothing
  4628 ;; This function is called by:
  4629 ;;		_init_config
  4630 ;; This function uses a non-reentrant model
  4631 ;;
  4632                           
  4633                           
  4634                           ;psect for function _init_timer2
  4635  0CBC                     _init_timer2:
  4636  0CBC                     l1743:	
  4637                           ;incstack = 0
  4638                           ; Regs used in _init_timer2: [wreg]
  4639                           
  4640                           
  4641                           ;timers.c: 7:     T2CKPS0 = 1;
  4642  0CBC  1283               	bcf	3,5	;RP0=0, select bank0
  4643  0CBD  1303               	bcf	3,6	;RP1=0, select bank0
  4644  0CBE  1412               	bsf	18,0	;volatile
  4645                           
  4646                           ;timers.c: 8:     T2CKPS1 = 1;
  4647  0CBF  1492               	bsf	18,1	;volatile
  4648  0CC0                     l1745:
  4649                           
  4650                           ;timers.c: 11:     PR2 = 250;
  4651  0CC0  30FA               	movlw	250
  4652  0CC1  1683               	bsf	3,5	;RP0=1, select bank1
  4653  0CC2  1303               	bcf	3,6	;RP1=0, select bank1
  4654  0CC3  0092               	movwf	18	;volatile
  4655  0CC4                     l1747:
  4656                           
  4657                           ;timers.c: 14:     TMR2IE = 1;
  4658  0CC4  148C               	bsf	12,1	;volatile
  4659  0CC5                     l1749:
  4660                           
  4661                           ;timers.c: 17:     TMR2ON = 0;
  4662  0CC5  1283               	bcf	3,5	;RP0=0, select bank0
  4663  0CC6  1303               	bcf	3,6	;RP1=0, select bank0
  4664  0CC7  1112               	bcf	18,2	;volatile
  4665  0CC8                     l293:
  4666  0CC8  0008               	return
  4667  0CC9                     __end_of_init_timer2:
  4668                           
  4669                           	psect	text15
  4670  0CC9                     __ptext15:	
  4671 ;; *************** function _init_matrix_keypad *****************
  4672 ;; Defined at:
  4673 ;;		line 4 in file "matrix_keypad.c"
  4674 ;; Parameters:    Size  Location     Type
  4675 ;;		None
  4676 ;; Auto vars:     Size  Location     Type
  4677 ;;		None
  4678 ;; Return value:  Size  Location     Type
  4679 ;;                  1    wreg      void 
  4680 ;; Registers used:
  4681 ;;		wreg, status,2
  4682 ;; Tracked objects:
  4683 ;;		On entry : 0/0
  4684 ;;		On exit  : 0/0
  4685 ;;		Unchanged: 0/0
  4686 ;; Data sizes:     COMMON   BANK0   BANK1   BANK3   BANK2
  4687 ;;      Params:         0       0       0       0       0
  4688 ;;      Locals:         0       0       0       0       0
  4689 ;;      Temps:          0       0       0       0       0
  4690 ;;      Totals:         0       0       0       0       0
  4691 ;;Total ram usage:        0 bytes
  4692 ;; Hardware stack levels used: 1
  4693 ;; Hardware stack levels required when called: 1
  4694 ;; This function calls:
  4695 ;;		Nothing
  4696 ;; This function is called by:
  4697 ;;		_init_config
  4698 ;; This function uses a non-reentrant model
  4699 ;;
  4700                           
  4701                           
  4702                           ;psect for function _init_matrix_keypad
  4703  0CC9                     _init_matrix_keypad:
  4704  0CC9                     l1731:	
  4705                           ;incstack = 0
  4706                           ; Regs used in _init_matrix_keypad: [wreg+status,2]
  4707                           
  4708                           
  4709                           ;matrix_keypad.c: 7:     TRISB = TRISB | 0x07;
  4710  0CC9  1683               	bsf	3,5	;RP0=1, select bank1
  4711  0CCA  1303               	bcf	3,6	;RP1=0, select bank1
  4712  0CCB  0806               	movf	6,w	;volatile
  4713  0CCC  3807               	iorlw	7
  4714  0CCD  0086               	movwf	6	;volatile
  4715                           
  4716                           ;matrix_keypad.c: 9:     TRISD = TRISD & 0xF0;
  4717  0CCE  0808               	movf	8,w	;volatile
  4718  0CCF  39F0               	andlw	240
  4719  0CD0  0088               	movwf	8	;volatile
  4720  0CD1                     l1733:
  4721                           
  4722                           ;matrix_keypad.c: 12:     nRBPU = 0;
  4723  0CD1  1381               	bcf	1,7	;volatile
  4724  0CD2                     l1735:
  4725                           
  4726                           ;matrix_keypad.c: 15:     RD3 = 1;
  4727  0CD2  1283               	bcf	3,5	;RP0=0, select bank0
  4728  0CD3  1303               	bcf	3,6	;RP1=0, select bank0
  4729  0CD4  1588               	bsf	8,3	;volatile
  4730  0CD5                     l1737:
  4731                           
  4732                           ;matrix_keypad.c: 16:     RD2 = 1;
  4733  0CD5  1508               	bsf	8,2	;volatile
  4734  0CD6                     l1739:
  4735                           
  4736                           ;matrix_keypad.c: 17:     RD1 = 1;
  4737  0CD6  1488               	bsf	8,1	;volatile
  4738  0CD7                     l1741:
  4739                           
  4740                           ;matrix_keypad.c: 18:     RD0 = 1;
  4741  0CD7  1408               	bsf	8,0	;volatile
  4742  0CD8                     l235:
  4743  0CD8  0008               	return
  4744  0CD9                     __end_of_init_matrix_keypad:
  4745                           
  4746                           	psect	text16
  4747  0CB1                     __ptext16:	
  4748 ;; *************** function _init_clcd *****************
  4749 ;; Defined at:
  4750 ;;		line 44 in file "clcd.c"
  4751 ;; Parameters:    Size  Location     Type
  4752 ;;		None
  4753 ;; Auto vars:     Size  Location     Type
  4754 ;;		None
  4755 ;; Return value:  Size  Location     Type
  4756 ;;                  1    wreg      void 
  4757 ;; Registers used:
  4758 ;;		wreg, status,2, status,0, pclath, cstack
  4759 ;; Tracked objects:
  4760 ;;		On entry : 0/0
  4761 ;;		On exit  : 0/0
  4762 ;;		Unchanged: 0/0
  4763 ;; Data sizes:     COMMON   BANK0   BANK1   BANK3   BANK2
  4764 ;;      Params:         0       0       0       0       0
  4765 ;;      Locals:         0       0       0       0       0
  4766 ;;      Temps:          0       0       0       0       0
  4767 ;;      Totals:         0       0       0       0       0
  4768 ;;Total ram usage:        0 bytes
  4769 ;; Hardware stack levels used: 1
  4770 ;; Hardware stack levels required when called: 3
  4771 ;; This function calls:
  4772 ;;		_init_display_controller
  4773 ;; This function is called by:
  4774 ;;		_init_config
  4775 ;; This function uses a non-reentrant model
  4776 ;;
  4777                           
  4778                           
  4779                           ;psect for function _init_clcd
  4780  0CB1                     _init_clcd:
  4781  0CB1                     l1723:	
  4782                           ;incstack = 0
  4783                           ; Regs used in _init_clcd: [wreg+status,2+status,0+pclath+cstack]
  4784                           
  4785                           
  4786                           ;clcd.c: 47:     TRISD = 0x00;
  4787  0CB1  1683               	bsf	3,5	;RP0=1, select bank1
  4788  0CB2  1303               	bcf	3,6	;RP1=0, select bank1
  4789  0CB3  0188               	clrf	8	;volatile
  4790  0CB4                     l1725:
  4791                           
  4792                           ;clcd.c: 50:     TRISE2 = 0;
  4793  0CB4  1109               	bcf	9,2	;volatile
  4794  0CB5                     l1727:
  4795                           
  4796                           ;clcd.c: 51:     TRISE1 = 0;
  4797  0CB5  1089               	bcf	9,1	;volatile
  4798  0CB6                     l1729:
  4799                           
  4800                           ;clcd.c: 53:     init_display_controller();
  4801  0CB6  120A  158A  262F  120A  158A  	fcall	_init_display_controller
  4802  0CBB                     l203:
  4803  0CBB  0008               	return
  4804  0CBC                     __end_of_init_clcd:
  4805                           
  4806                           	psect	text17
  4807  0E2F                     __ptext17:	
  4808 ;; *************** function _init_display_controller *****************
  4809 ;; Defined at:
  4810 ;;		line 21 in file "clcd.c"
  4811 ;; Parameters:    Size  Location     Type
  4812 ;;		None
  4813 ;; Auto vars:     Size  Location     Type
  4814 ;;		None
  4815 ;; Return value:  Size  Location     Type
  4816 ;;                  1    wreg      void 
  4817 ;; Registers used:
  4818 ;;		wreg, status,2, status,0, pclath, cstack
  4819 ;; Tracked objects:
  4820 ;;		On entry : 0/0
  4821 ;;		On exit  : 0/0
  4822 ;;		Unchanged: 0/0
  4823 ;; Data sizes:     COMMON   BANK0   BANK1   BANK3   BANK2
  4824 ;;      Params:         0       0       0       0       0
  4825 ;;      Locals:         0       0       0       0       0
  4826 ;;      Temps:          2       0       0       0       0
  4827 ;;      Totals:         2       0       0       0       0
  4828 ;;Total ram usage:        2 bytes
  4829 ;; Hardware stack levels used: 1
  4830 ;; Hardware stack levels required when called: 2
  4831 ;; This function calls:
  4832 ;;		_clcd_write
  4833 ;; This function is called by:
  4834 ;;		_init_clcd
  4835 ;; This function uses a non-reentrant model
  4836 ;;
  4837                           
  4838                           
  4839                           ;psect for function _init_display_controller
  4840  0E2F                     _init_display_controller:
  4841  0E2F                     l1699:	
  4842                           ;incstack = 0
  4843                           ; Regs used in _init_display_controller: [wreg+status,2+status,0+pclath+cstack]
  4844                           
  4845                           
  4846                           ;clcd.c: 24:     _delay((unsigned long)((30)*(20000000/4000.0)));
  4847  0E2F  30C3               	movlw	195
  4848  0E30  00F8               	movwf	??_init_display_controller+1
  4849  0E31  30CD               	movlw	205
  4850  0E32  00F7               	movwf	??_init_display_controller
  4851  0E33                     u2717:
  4852  0E33  0BF7               	decfsz	??_init_display_controller,f
  4853  0E34  2E33               	goto	u2717
  4854  0E35  0BF8               	decfsz	??_init_display_controller+1,f
  4855  0E36  2E33               	goto	u2717
  4856  0E37                     l1701:
  4857                           
  4858                           ;clcd.c: 27:     clcd_write(0x33, 0);
  4859  0E37  01F3               	clrf	clcd_write@mode
  4860  0E38  3033               	movlw	51
  4861  0E39  120A  158A  2567  120A  158A  	fcall	_clcd_write
  4862  0E3E                     l1703:
  4863                           
  4864                           ;clcd.c: 28:     _delay((unsigned long)((4100)*(20000000/4000000.0)));
  4865  0E3E  301B               	movlw	27
  4866  0E3F  00F8               	movwf	??_init_display_controller+1
  4867  0E40  309E               	movlw	158
  4868  0E41  00F7               	movwf	??_init_display_controller
  4869  0E42                     u2727:
  4870  0E42  0BF7               	decfsz	??_init_display_controller,f
  4871  0E43  2E42               	goto	u2727
  4872  0E44  0BF8               	decfsz	??_init_display_controller+1,f
  4873  0E45  2E42               	goto	u2727
  4874  0E46  0000               	nop
  4875                           
  4876                           ;clcd.c: 29:     clcd_write(0x33, 0);
  4877  0E47  01F3               	clrf	clcd_write@mode
  4878  0E48  3033               	movlw	51
  4879  0E49  120A  158A  2567  120A  158A  	fcall	_clcd_write
  4880  0E4E                     l1705:
  4881                           
  4882                           ;clcd.c: 30:     _delay((unsigned long)((100)*(20000000/4000000.0)));
  4883  0E4E  30A6               	movlw	166
  4884  0E4F  00F7               	movwf	??_init_display_controller
  4885  0E50                     u2737:
  4886  0E50  0BF7               	decfsz	??_init_display_controller,f
  4887  0E51  2E50               	goto	u2737
  4888  0E52  0000               	nop
  4889  0E53                     l1707:
  4890                           
  4891                           ;clcd.c: 31:     clcd_write(0x33, 0);
  4892  0E53  01F3               	clrf	clcd_write@mode
  4893  0E54  3033               	movlw	51
  4894  0E55  120A  158A  2567  120A  158A  	fcall	_clcd_write
  4895  0E5A                     l1709:
  4896                           
  4897                           ;clcd.c: 32:     _delay((unsigned long)((1)*(20000000/4000000.0)));
  4898  0E5A  2E5B               	nop2	;2 cycle nop
  4899  0E5B  2E5C               	nop2	;2 cycle nop
  4900  0E5C  0000               	nop
  4901  0E5D                     l1711:
  4902                           
  4903                           ;clcd.c: 34:     clcd_write(0x02, 0);
  4904  0E5D  01F3               	clrf	clcd_write@mode
  4905  0E5E  3002               	movlw	2
  4906  0E5F  120A  158A  2567  120A  158A  	fcall	_clcd_write
  4907  0E64                     l1713:
  4908                           
  4909                           ;clcd.c: 35:     _delay((unsigned long)((100)*(20000000/4000000.0)));
  4910  0E64  30A6               	movlw	166
  4911  0E65  00F7               	movwf	??_init_display_controller
  4912  0E66                     u2747:
  4913  0E66  0BF7               	decfsz	??_init_display_controller,f
  4914  0E67  2E66               	goto	u2747
  4915  0E68  0000               	nop
  4916                           
  4917                           ;clcd.c: 36:     clcd_write(0x28, 0);
  4918  0E69  01F3               	clrf	clcd_write@mode
  4919  0E6A  3028               	movlw	40
  4920  0E6B  120A  158A  2567  120A  158A  	fcall	_clcd_write
  4921  0E70                     l1715:
  4922                           
  4923                           ;clcd.c: 37:     _delay((unsigned long)((100)*(20000000/4000000.0)));
  4924  0E70  30A6               	movlw	166
  4925  0E71  00F7               	movwf	??_init_display_controller
  4926  0E72                     u2757:
  4927  0E72  0BF7               	decfsz	??_init_display_controller,f
  4928  0E73  2E72               	goto	u2757
  4929  0E74  0000               	nop
  4930  0E75                     l1717:
  4931                           
  4932                           ;clcd.c: 38:     clcd_write(0x01, 0);
  4933  0E75  01F3               	clrf	clcd_write@mode
  4934  0E76  3001               	movlw	1
  4935  0E77  120A  158A  2567  120A  158A  	fcall	_clcd_write
  4936                           
  4937                           ;clcd.c: 39:     _delay((unsigned long)((500)*(20000000/4000000.0)));
  4938  0E7C  3004               	movlw	4
  4939  0E7D  00F8               	movwf	??_init_display_controller+1
  4940  0E7E  303D               	movlw	61
  4941  0E7F  00F7               	movwf	??_init_display_controller
  4942  0E80                     u2767:
  4943  0E80  0BF7               	decfsz	??_init_display_controller,f
  4944  0E81  2E80               	goto	u2767
  4945  0E82  0BF8               	decfsz	??_init_display_controller+1,f
  4946  0E83  2E80               	goto	u2767
  4947  0E84  2E85               	nop2
  4948  0E85                     l1719:
  4949                           
  4950                           ;clcd.c: 40:     clcd_write(0x0C, 0);
  4951  0E85  01F3               	clrf	clcd_write@mode
  4952  0E86  300C               	movlw	12
  4953  0E87  120A  158A  2567  120A  158A  	fcall	_clcd_write
  4954  0E8C                     l1721:
  4955                           
  4956                           ;clcd.c: 41:     _delay((unsigned long)((100)*(20000000/4000000.0)));
  4957  0E8C  30A6               	movlw	166
  4958  0E8D  00F7               	movwf	??_init_display_controller
  4959  0E8E                     u2777:
  4960  0E8E  0BF7               	decfsz	??_init_display_controller,f
  4961  0E8F  2E8E               	goto	u2777
  4962  0E90  0000               	nop
  4963  0E91                     l200:
  4964  0E91  0008               	return
  4965  0E92                     __end_of_init_display_controller:
  4966                           
  4967                           	psect	text18
  4968  07B4                     __ptext18:	
  4969 ;; *************** function _cooking_mode_display *****************
  4970 ;; Defined at:
  4971 ;;		line 200 in file "main.c"
  4972 ;; Parameters:    Size  Location     Type
  4973 ;;		None
  4974 ;; Auto vars:     Size  Location     Type
  4975 ;;		None
  4976 ;; Return value:  Size  Location     Type
  4977 ;;                  1    wreg      void 
  4978 ;; Registers used:
  4979 ;;		wreg, fsr0l, fsr0h, status,2, status,0, btemp+1, pclath, cstack
  4980 ;; Tracked objects:
  4981 ;;		On entry : 0/0
  4982 ;;		On exit  : 0/0
  4983 ;;		Unchanged: 0/0
  4984 ;; Data sizes:     COMMON   BANK0   BANK1   BANK3   BANK2
  4985 ;;      Params:         0       0       0       0       0
  4986 ;;      Locals:         0       0       0       0       0
  4987 ;;      Temps:          1       0       0       0       0
  4988 ;;      Totals:         1       0       0       0       0
  4989 ;;Total ram usage:        1 bytes
  4990 ;; Hardware stack levels used: 1
  4991 ;; Hardware stack levels required when called: 3
  4992 ;; This function calls:
  4993 ;;		_clcd_print
  4994 ;; This function is called by:
  4995 ;;		_main
  4996 ;; This function uses a non-reentrant model
  4997 ;;
  4998                           
  4999                           
  5000                           ;psect for function _cooking_mode_display
  5001  07B4                     _cooking_mode_display:
  5002  07B4                     l2505:	
  5003                           ;incstack = 0
  5004                           ; Regs used in _cooking_mode_display: [wreg-fsr0h+status,2+status,0+btemp+1+pclath+cstac
      +                          k]
  5005                           
  5006                           
  5007                           ;main.c: 202:           blink_pos = 0;
  5008  07B4  30E9               	movlw	low (STR_4| (0+32768))
  5009  07B5  1283               	bcf	3,5	;RP0=0, select bank0
  5010  07B6  1303               	bcf	3,6	;RP1=0, select bank0
  5011  07B7  00BA               	movwf	clcd_print@str
  5012  07B8  3086               	movlw	high (STR_4| (0+32768))
  5013  07B9  00BB               	movwf	clcd_print@str+1
  5014  07BA  3080               	movlw	128
  5015  07BB  00F7               	movwf	??_cooking_mode_display
  5016  07BC  0877               	movf	??_cooking_mode_display,w
  5017  07BD  00BC               	movwf	clcd_print@addr
  5018  07BE  120A  158A  2534  120A  118A  	fcall	_clcd_print
  5019                           
  5020                           ;main.c: 203:           key = 0xFF;
  5021  07C3  30E1               	movlw	low (STR_5| (0+32768))
  5022  07C4  1283               	bcf	3,5	;RP0=0, select bank0
  5023  07C5  1303               	bcf	3,6	;RP1=0, select bank0
  5024  07C6  00BA               	movwf	clcd_print@str
  5025  07C7  3086               	movlw	high (STR_5| (0+32768))
  5026  07C8  00BB               	movwf	clcd_print@str+1
  5027  07C9  30C0               	movlw	192
  5028  07CA  00F7               	movwf	??_cooking_mode_display
  5029  07CB  0877               	movf	??_cooking_mode_display,w
  5030  07CC  00BC               	movwf	clcd_print@addr
  5031  07CD  120A  158A  2534  120A  118A  	fcall	_clcd_print
  5032                           
  5033                           ;main.c: 204:           clcd_print("SET TIME <MM:SS> ", (0x80 + 0));
  5034  07D2  30A3               	movlw	low (STR_6| (0+32768))
  5035  07D3  1283               	bcf	3,5	;RP0=0, select bank0
  5036  07D4  1303               	bcf	3,6	;RP1=0, select bank0
  5037  07D5  00BA               	movwf	clcd_print@str
  5038  07D6  3086               	movlw	high (STR_6| (0+32768))
  5039  07D7  00BB               	movwf	clcd_print@str+1
  5040  07D8  3090               	movlw	144
  5041  07D9  00F7               	movwf	??_cooking_mode_display
  5042  07DA  0877               	movf	??_cooking_mode_display,w
  5043  07DB  00BC               	movwf	clcd_print@addr
  5044  07DC  120A  158A  2534  120A  118A  	fcall	_clcd_print
  5045                           
  5046                           ;main.c: 205:           clcd_print("TIME- ",(0xC0 + 0));
  5047  07E1  30F9               	movlw	low (STR_7| (0+32768))
  5048  07E2  1283               	bcf	3,5	;RP0=0, select bank0
  5049  07E3  1303               	bcf	3,6	;RP1=0, select bank0
  5050  07E4  00BA               	movwf	clcd_print@str
  5051  07E5  3086               	movlw	high (STR_7| (0+32768))
  5052  07E6  00BB               	movwf	clcd_print@str+1
  5053  07E7  30D0               	movlw	208
  5054  07E8  00F7               	movwf	??_cooking_mode_display
  5055  07E9  0877               	movf	??_cooking_mode_display,w
  5056  07EA  00BC               	movwf	clcd_print@addr
  5057  07EB  120A  158A  2534  120A  118A  	fcall	_clcd_print
  5058  07F0                     l119:
  5059  07F0  0008               	return
  5060  07F1                     __end_of_cooking_mode_display:
  5061                           
  5062                           	psect	text19
  5063  0D34                     __ptext19:	
  5064 ;; *************** function _clcd_print *****************
  5065 ;; Defined at:
  5066 ;;		line 62 in file "clcd.c"
  5067 ;; Parameters:    Size  Location     Type
  5068 ;;  str             2    0[BANK0 ] PTR const unsigned char 
  5069 ;;		 -> STR_25(4), set_temp@temp_arr(4), STR_24(12), STR_23(17), 
  5070 ;;		 -> STR_22(17), STR_21(8), STR_20(15), STR_19(10), 
  5071 ;;		 -> STR_18(8), STR_17(9), STR_16(16), STR_15(10), 
  5072 ;;		 -> STR_14(15), STR_13(17), STR_12(3), STR_11(3), 
  5073 ;;		 -> STR_10(17), STR_9(7), STR_8(18), STR_7(8), 
  5074 ;;		 -> STR_6(13), STR_5(8), STR_4(8), STR_3(17), 
  5075 ;;		 -> STR_2(17), STR_1(14), 
  5076 ;;  addr            1    2[BANK0 ] unsigned char 
  5077 ;; Auto vars:     Size  Location     Type
  5078 ;;		None
  5079 ;; Return value:  Size  Location     Type
  5080 ;;                  1    wreg      void 
  5081 ;; Registers used:
  5082 ;;		wreg, fsr0l, fsr0h, status,2, status,0, btemp+1, pclath, cstack
  5083 ;; Tracked objects:
  5084 ;;		On entry : 0/0
  5085 ;;		On exit  : 0/0
  5086 ;;		Unchanged: 0/0
  5087 ;; Data sizes:     COMMON   BANK0   BANK1   BANK3   BANK2
  5088 ;;      Params:         0       3       0       0       0
  5089 ;;      Locals:         0       0       0       0       0
  5090 ;;      Temps:          0       0       0       0       0
  5091 ;;      Totals:         0       3       0       0       0
  5092 ;;Total ram usage:        3 bytes
  5093 ;; Hardware stack levels used: 1
  5094 ;; Hardware stack levels required when called: 2
  5095 ;; This function calls:
  5096 ;;		_clcd_write
  5097 ;; This function is called by:
  5098 ;;		_main
  5099 ;;		_power_on_screen
  5100 ;;		_cooking_mode_display
  5101 ;;		_set_time
  5102 ;;		_door_status_check
  5103 ;;		_time_display_screen
  5104 ;;		_set_temp
  5105 ;; This function uses a non-reentrant model
  5106 ;;
  5107                           
  5108                           
  5109                           ;psect for function _clcd_print
  5110  0D34                     _clcd_print:
  5111  0D34                     l2419:	
  5112                           ;incstack = 0
  5113                           ; Regs used in _clcd_print: [wreg-fsr0h+status,2+status,0+btemp+1+pclath+cstack]
  5114                           
  5115                           
  5116                           ;clcd.c: 62: void clcd_print(const char *str, unsigned char addr);clcd.c: 63: {;clcd.c: 
      +                          64:     clcd_write(addr, 0);
  5117  0D34  01F3               	clrf	clcd_write@mode
  5118  0D35  1283               	bcf	3,5	;RP0=0, select bank0
  5119  0D36  1303               	bcf	3,6	;RP1=0, select bank0
  5120  0D37  083C               	movf	clcd_print@addr,w
  5121  0D38  120A  158A  2567  120A  158A  	fcall	_clcd_write
  5122                           
  5123                           ;clcd.c: 66:     while (*str != '\0')
  5124  0D3D  2D56               	goto	l2425
  5125  0D3E                     l2421:
  5126                           
  5127                           ;clcd.c: 67:     {;clcd.c: 68:         clcd_write(*str, 1);
  5128  0D3E  01F3               	clrf	clcd_write@mode
  5129  0D3F  0AF3               	incf	clcd_write@mode,f
  5130  0D40  083B               	movf	clcd_print@str+1,w
  5131  0D41  00FF               	movwf	btemp+1
  5132  0D42  083A               	movf	clcd_print@str,w
  5133  0D43  0084               	movwf	4
  5134  0D44  120A  158A  2000  120A  158A  	fcall	stringtab
  5135  0D49  120A  158A  2567  120A  158A  	fcall	_clcd_write
  5136  0D4E                     l2423:
  5137                           
  5138                           ;clcd.c: 69:         str++;
  5139  0D4E  3001               	movlw	1
  5140  0D4F  1283               	bcf	3,5	;RP0=0, select bank0
  5141  0D50  1303               	bcf	3,6	;RP1=0, select bank0
  5142  0D51  07BA               	addwf	clcd_print@str,f
  5143  0D52  1803               	skipnc
  5144  0D53  0ABB               	incf	clcd_print@str+1,f
  5145  0D54  3000               	movlw	0
  5146  0D55  07BB               	addwf	clcd_print@str+1,f
  5147  0D56                     l2425:
  5148                           
  5149                           ;clcd.c: 66:     while (*str != '\0')
  5150  0D56  1283               	bcf	3,5	;RP0=0, select bank0
  5151  0D57  1303               	bcf	3,6	;RP1=0, select bank0
  5152  0D58  083B               	movf	clcd_print@str+1,w
  5153  0D59  00FF               	movwf	btemp+1
  5154  0D5A  083A               	movf	clcd_print@str,w
  5155  0D5B  0084               	movwf	4
  5156  0D5C  120A  158A  2000  120A  158A  	fcall	stringtab
  5157  0D61  3A00               	xorlw	0
  5158  0D62  1D03               	skipz
  5159  0D63  2D65               	goto	u2051
  5160  0D64  2D66               	goto	u2050
  5161  0D65                     u2051:
  5162  0D65  2D3E               	goto	l2421
  5163  0D66                     u2050:
  5164  0D66                     l212:
  5165  0D66  0008               	return
  5166  0D67                     __end_of_clcd_print:
  5167                           
  5168                           	psect	text20
  5169  0D67                     __ptext20:	
  5170 ;; *************** function _clcd_write *****************
  5171 ;; Defined at:
  5172 ;;		line 4 in file "clcd.c"
  5173 ;; Parameters:    Size  Location     Type
  5174 ;;  byte            1    wreg     unsigned char 
  5175 ;;  mode            1    3[COMMON] unsigned char 
  5176 ;; Auto vars:     Size  Location     Type
  5177 ;;  byte            1    6[COMMON] unsigned char 
  5178 ;; Return value:  Size  Location     Type
  5179 ;;                  1    wreg      void 
  5180 ;; Registers used:
  5181 ;;		wreg, status,2, status,0
  5182 ;; Tracked objects:
  5183 ;;		On entry : 0/0
  5184 ;;		On exit  : 0/0
  5185 ;;		Unchanged: 0/0
  5186 ;; Data sizes:     COMMON   BANK0   BANK1   BANK3   BANK2
  5187 ;;      Params:         1       0       0       0       0
  5188 ;;      Locals:         1       0       0       0       0
  5189 ;;      Temps:          2       0       0       0       0
  5190 ;;      Totals:         4       0       0       0       0
  5191 ;;Total ram usage:        4 bytes
  5192 ;; Hardware stack levels used: 1
  5193 ;; Hardware stack levels required when called: 1
  5194 ;; This function calls:
  5195 ;;		Nothing
  5196 ;; This function is called by:
  5197 ;;		_clear_clcd
  5198 ;;		_init_display_controller
  5199 ;;		_clcd_putch
  5200 ;;		_clcd_print
  5201 ;; This function uses a non-reentrant model
  5202 ;;
  5203                           
  5204                           
  5205                           ;psect for function _clcd_write
  5206  0D67                     _clcd_write:
  5207                           
  5208                           ;incstack = 0
  5209                           ; Regs used in _clcd_write: [wreg+status,2+status,0]
  5210                           ;clcd_write@byte stored from wreg
  5211  0D67  00F6               	movwf	clcd_write@byte
  5212  0D68                     l1667:
  5213                           
  5214                           ;clcd.c: 4:  void clcd_write(unsigned char byte, unsigned char mode);clcd.c: 5: {;clcd.c
      +                          : 6:     RE2 = mode;
  5215  0D68  1873               	btfsc	clcd_write@mode,0
  5216  0D69  2D6B               	goto	u1031
  5217  0D6A  2D6F               	goto	u1030
  5218  0D6B                     u1031:
  5219  0D6B  1283               	bcf	3,5	;RP0=0, select bank0
  5220  0D6C  1303               	bcf	3,6	;RP1=0, select bank0
  5221  0D6D  1509               	bsf	9,2	;volatile
  5222  0D6E  2D72               	goto	u1044
  5223  0D6F                     u1030:
  5224  0D6F  1283               	bcf	3,5	;RP0=0, select bank0
  5225  0D70  1303               	bcf	3,6	;RP1=0, select bank0
  5226  0D71  1109               	bcf	9,2	;volatile
  5227  0D72                     u1044:
  5228  0D72                     l1669:
  5229                           
  5230                           ;clcd.c: 8:     PORTD = byte & 0xF0;
  5231  0D72  0876               	movf	clcd_write@byte,w
  5232  0D73  39F0               	andlw	240
  5233  0D74  0088               	movwf	8	;volatile
  5234  0D75                     l1671:
  5235                           
  5236                           ;clcd.c: 9:     RE1 = 1;
  5237  0D75  1489               	bsf	9,1	;volatile
  5238  0D76                     l1673:
  5239                           
  5240                           ;clcd.c: 10:     _delay((unsigned long)((100)*(20000000/4000000.0)));
  5241  0D76  30A6               	movlw	166
  5242  0D77  00F4               	movwf	??_clcd_write
  5243  0D78                     u2787:
  5244  0D78  0BF4               	decfsz	??_clcd_write,f
  5245  0D79  2D78               	goto	u2787
  5246  0D7A  0000               	nop
  5247  0D7B                     l1675:
  5248                           
  5249                           ;clcd.c: 11:     RE1 = 0;
  5250  0D7B  1283               	bcf	3,5	;RP0=0, select bank0
  5251  0D7C  1303               	bcf	3,6	;RP1=0, select bank0
  5252  0D7D  1089               	bcf	9,1	;volatile
  5253  0D7E                     l1677:
  5254                           
  5255                           ;clcd.c: 13:     PORTD = (byte & 0x0F) << 4;
  5256  0D7E  0876               	movf	clcd_write@byte,w
  5257  0D7F  390F               	andlw	15
  5258  0D80  00F4               	movwf	??_clcd_write
  5259  0D81  3003               	movlw	3
  5260  0D82                     u1055:
  5261  0D82  1003               	clrc
  5262  0D83  0DF4               	rlf	??_clcd_write,f
  5263  0D84  3EFF               	addlw	-1
  5264  0D85  1D03               	skipz
  5265  0D86  2D82               	goto	u1055
  5266  0D87  1003               	clrc
  5267  0D88  0D74               	rlf	??_clcd_write,w
  5268  0D89  0088               	movwf	8	;volatile
  5269  0D8A                     l1679:
  5270                           
  5271                           ;clcd.c: 14:     RE1 = 1;
  5272  0D8A  1489               	bsf	9,1	;volatile
  5273  0D8B                     l1681:
  5274                           
  5275                           ;clcd.c: 15:     _delay((unsigned long)((100)*(20000000/4000000.0)));
  5276  0D8B  30A6               	movlw	166
  5277  0D8C  00F4               	movwf	??_clcd_write
  5278  0D8D                     u2797:
  5279  0D8D  0BF4               	decfsz	??_clcd_write,f
  5280  0D8E  2D8D               	goto	u2797
  5281  0D8F  0000               	nop
  5282  0D90                     l1683:
  5283                           
  5284                           ;clcd.c: 16:     RE1 = 0;
  5285  0D90  1283               	bcf	3,5	;RP0=0, select bank0
  5286  0D91  1303               	bcf	3,6	;RP1=0, select bank0
  5287  0D92  1089               	bcf	9,1	;volatile
  5288  0D93                     l1685:
  5289                           
  5290                           ;clcd.c: 18:     _delay((unsigned long)((4100)*(20000000/4000000.0)));
  5291  0D93  301B               	movlw	27
  5292  0D94  00F5               	movwf	??_clcd_write+1
  5293  0D95  309E               	movlw	158
  5294  0D96  00F4               	movwf	??_clcd_write
  5295  0D97                     u2807:
  5296  0D97  0BF4               	decfsz	??_clcd_write,f
  5297  0D98  2D97               	goto	u2807
  5298  0D99  0BF5               	decfsz	??_clcd_write+1,f
  5299  0D9A  2D97               	goto	u2807
  5300  0D9B  0000               	nop
  5301  0D9C                     l197:
  5302  0D9C  0008               	return
  5303  0D9D                     __end_of_clcd_write:
  5304                           
  5305                           	psect	text21
  5306  0D9D                     __ptext21:	
  5307 ;; *************** function _isr *****************
  5308 ;; Defined at:
  5309 ;;		line 5 in file "isr.c"
  5310 ;; Parameters:    Size  Location     Type
  5311 ;;		None
  5312 ;; Auto vars:     Size  Location     Type
  5313 ;;		None
  5314 ;; Return value:  Size  Location     Type
  5315 ;;                  1    wreg      void 
  5316 ;; Registers used:
  5317 ;;		wreg, status,2, status,0
  5318 ;; Tracked objects:
  5319 ;;		On entry : 0/0
  5320 ;;		On exit  : 0/0
  5321 ;;		Unchanged: 0/0
  5322 ;; Data sizes:     COMMON   BANK0   BANK1   BANK3   BANK2
  5323 ;;      Params:         0       0       0       0       0
  5324 ;;      Locals:         0       0       0       0       0
  5325 ;;      Temps:          3       0       0       0       0
  5326 ;;      Totals:         3       0       0       0       0
  5327 ;;Total ram usage:        3 bytes
  5328 ;; Hardware stack levels used: 1
  5329 ;; This function calls:
  5330 ;;		Nothing
  5331 ;; This function is called by:
  5332 ;;		Interrupt level 1
  5333 ;; This function uses a non-reentrant model
  5334 ;;
  5335                           
  5336                           
  5337                           ;psect for function _isr
  5338  0D9D                     _isr:
  5339  0D9D                     i1l2349:
  5340                           
  5341                           ;isr.c: 7:     static unsigned int count = 0;;isr.c: 9:     if (TMR2IF == 1)
  5342  0D9D  1283               	bcf	3,5	;RP0=0, select bank0
  5343  0D9E  1303               	bcf	3,6	;RP1=0, select bank0
  5344  0D9F  1C8C               	btfss	12,1	;volatile
  5345  0DA0  2DA2               	goto	u200_21
  5346  0DA1  2DA3               	goto	u200_20
  5347  0DA2                     u200_21:
  5348  0DA2  2DCD               	goto	i1l311
  5349  0DA3                     u200_20:
  5350  0DA3                     i1l2351:
  5351                           
  5352                           ;isr.c: 10:     {;isr.c: 11:         if (++count == 1250)
  5353  0DA3  3001               	movlw	1
  5354  0DA4  07A0               	addwf	isr@count,f
  5355  0DA5  1803               	skipnc
  5356  0DA6  0AA1               	incf	isr@count+1,f
  5357  0DA7  3000               	movlw	0
  5358  0DA8  07A1               	addwf	isr@count+1,f
  5359  0DA9  30E2               	movlw	226
  5360  0DAA  0620               	xorwf	isr@count,w
  5361  0DAB  3004               	movlw	4
  5362  0DAC  1903               	skipnz
  5363  0DAD  0621               	xorwf	isr@count+1,w
  5364  0DAE  1D03               	btfss	3,2
  5365  0DAF  2DB1               	goto	u201_21
  5366  0DB0  2DB2               	goto	u201_20
  5367  0DB1                     u201_21:
  5368  0DB1  2DCC               	goto	i1l2367
  5369  0DB2                     u201_20:
  5370  0DB2                     i1l2353:
  5371                           
  5372                           ;isr.c: 12:         {;isr.c: 13:             count = 0;
  5373  0DB2  01A0               	clrf	isr@count
  5374  0DB3  01A1               	clrf	isr@count+1
  5375  0DB4                     i1l2355:
  5376                           
  5377                           ;isr.c: 14:             if(sec > 0)
  5378  0DB4  0835               	movf	_sec,w
  5379  0DB5  1903               	btfsc	3,2
  5380  0DB6  2DB8               	goto	u202_21
  5381  0DB7  2DB9               	goto	u202_20
  5382  0DB8                     u202_21:
  5383  0DB8  2DBC               	goto	i1l2359
  5384  0DB9                     u202_20:
  5385  0DB9                     i1l2357:
  5386                           
  5387                           ;isr.c: 15:             {;isr.c: 16:                 sec--;
  5388  0DB9  3001               	movlw	1
  5389  0DBA  02B5               	subwf	_sec,f
  5390                           
  5391                           ;isr.c: 17:             }
  5392  0DBB  2DCC               	goto	i1l2367
  5393  0DBC                     i1l2359:
  5394  0DBC  0835               	movf	_sec,w
  5395  0DBD  1D03               	btfss	3,2
  5396  0DBE  2DC0               	goto	u203_21
  5397  0DBF  2DC1               	goto	u203_20
  5398  0DC0                     u203_21:
  5399  0DC0  2DCC               	goto	i1l2367
  5400  0DC1                     u203_20:
  5401  0DC1                     i1l2361:
  5402  0DC1  0834               	movf	_min,w
  5403  0DC2  1903               	btfsc	3,2
  5404  0DC3  2DC5               	goto	u204_21
  5405  0DC4  2DC6               	goto	u204_20
  5406  0DC5                     u204_21:
  5407  0DC5  2DCC               	goto	i1l2367
  5408  0DC6                     u204_20:
  5409  0DC6                     i1l2363:
  5410                           
  5411                           ;isr.c: 19:             {;isr.c: 20:                 min--;
  5412  0DC6  3001               	movlw	1
  5413  0DC7  02B4               	subwf	_min,f
  5414  0DC8                     i1l2365:
  5415                           
  5416                           ;isr.c: 21:                 sec = 59;
  5417  0DC8  303B               	movlw	59
  5418  0DC9  00F0               	movwf	??_isr
  5419  0DCA  0870               	movf	??_isr,w
  5420  0DCB  00B5               	movwf	_sec
  5421  0DCC                     i1l2367:
  5422                           
  5423                           ;isr.c: 26:         TMR2IF = 0;
  5424  0DCC  108C               	bcf	12,1	;volatile
  5425  0DCD                     i1l311:
  5426  0DCD  0872               	movf	??_isr+2,w
  5427  0DCE  008A               	movwf	10
  5428  0DCF  0E71               	swapf	??_isr+1,w
  5429  0DD0  0083               	movwf	3
  5430  0DD1  0EFE               	swapf	btemp,f
  5431  0DD2  0E7E               	swapf	btemp,w
  5432  0DD3  0009               	retfie
  5433  0DD4                     __end_of_isr:
  5434  007E                     btemp	set	126	;btemp
  5435  007E                     wtemp0	set	126
  5436                           
  5437                           	psect	intentry
  5438  0004                     __pintentry:	
  5439                           ;incstack = 0
  5440                           ; Regs used in _isr: [wreg+status,2+status,0]
  5441                           
  5442  0004                     interrupt_function:
  5443  007E                     saved_w	set	btemp
  5444  0004  00FE               	movwf	btemp
  5445  0005  0E03               	swapf	3,w
  5446  0006  00F1               	movwf	??_isr+1
  5447  0007  080A               	movf	10,w
  5448  0008  00F2               	movwf	??_isr+2
  5449  0009  120A  158A  2D9D   	ljmp	_isr
  5450                           
  5451                           	psect	config
  5452                           
  5453                           ;Config register CONFIG @ 0x2007
  5454                           ;	Oscillator Selection bits
  5455                           ;	FOSC = 0x3, unprogrammed default
  5456                           ;	Watchdog Timer Enable bit
  5457                           ;	WDTE = OFF, WDT disabled
  5458                           ;	Power-up Timer Enable bit
  5459                           ;	PWRTE = 0x1, unprogrammed default
  5460                           ;	Brown-out Reset Enable bit
  5461                           ;	BOREN = 0x1, unprogrammed default
  5462                           ;	Low-Voltage (Single-Supply) In-Circuit Serial Programming Enable bit
  5463                           ;	LVP = 0x1, unprogrammed default
  5464                           ;	Data EEPROM Memory Code Protection bit
  5465                           ;	CPD = 0x1, unprogrammed default
  5466                           ;	Flash Program Memory Write Enable bits
  5467                           ;	WRT = 0x3, unprogrammed default
  5468                           ;	In-Circuit Debugger Mode bit
  5469                           ;	DEBUG = 0x1, unprogrammed default
  5470                           ;	Flash Program Memory Code Protection bit
  5471                           ;	CP = 0x1, unprogrammed default
  5472  2007                     	org	8199
  5473  2007  3FFB               	dw	16379

Data Sizes:
    Strings     264
    Constant    0
    Data        1
    BSS         27
    Persistent  0
    Stack       0

Auto Spaces:
    Space          Size  Autos    Used
    COMMON           14      9      11
    BANK0            80     23      49
    BANK1            80      0       0
    BANK3            96      0       0
    BANK2            96      0       0

Pointer List with Targets:

    clcd_print@str	PTR const unsigned char  size(2) Largest target is 18
		 -> STR_25(CODE[4]), set_temp@temp_arr(BANK0[4]), STR_24(CODE[12]), STR_23(CODE[17]), 
		 -> STR_22(CODE[17]), STR_21(CODE[8]), STR_20(CODE[15]), STR_19(CODE[10]), 
		 -> STR_18(CODE[8]), STR_17(CODE[9]), STR_16(CODE[16]), STR_15(CODE[10]), 
		 -> STR_14(CODE[15]), STR_13(CODE[17]), STR_12(CODE[3]), STR_11(CODE[3]), 
		 -> STR_10(CODE[17]), STR_9(CODE[7]), STR_8(CODE[18]), STR_7(CODE[8]), 
		 -> STR_6(CODE[13]), STR_5(CODE[8]), STR_4(CODE[8]), STR_3(CODE[17]), 
		 -> STR_2(CODE[17]), STR_1(CODE[14]), 


Critical Paths under _main in COMMON

    _time_display_screen->___awmod
    _time_display_screen->_door_status_check
    _door_status_check->_clear_clcd
    _set_time->___awmod
    _set_temp->___awmod
    _clear_clcd->_clcd_write
    ___awmod->___awdiv
    _read_matrix_keypad->_scan_keypad
    _clcd_putch->___awmod
    _init_clcd->_init_display_controller
    _init_display_controller->_clcd_write
    _clcd_print->_clcd_write

Critical Paths under _isr in COMMON

    None.

Critical Paths under _main in BANK0

    _main->_power_on_screen
    _time_display_screen->_clcd_putch
    _door_status_check->_clcd_print
    _set_time->_clcd_putch
    _set_temp->_clcd_putch
    ___awmod->___awdiv
    _power_on_screen->_clcd_putch
    _clcd_putch->___awmod
    _cooking_mode_display->_clcd_print

Critical Paths under _isr in BANK0

    None.

Critical Paths under _main in BANK1

    None.

Critical Paths under _isr in BANK1

    None.

Critical Paths under _main in BANK3

    None.

Critical Paths under _isr in BANK3

    None.

Critical Paths under _main in BANK2

    None.

Critical Paths under _isr in BANK2

    None.

Call Graph Tables:

 ---------------------------------------------------------------------------------
 (Depth) Function   	        Calls       Base Space   Used Autos Params    Refs
 ---------------------------------------------------------------------------------
 (0) _main                                                 4     4      0   67028
                                             19 BANK0      4     4      0
                         _clcd_print
                         _clear_clcd
               _cooking_mode_display
                        _init_config
                    _power_on_screen
                 _read_matrix_keypad
                           _set_temp
                           _set_time
                _time_display_screen
 ---------------------------------------------------------------------------------
 (1) _time_display_screen                                  3     3      0   19091
                                             12 BANK0      3     3      0
                            ___awdiv
                            ___awmod
                         _clcd_print
                         _clcd_putch
                         _clear_clcd
                  _door_status_check
 ---------------------------------------------------------------------------------
 (2) _door_status_check                                    1     1      0    6732
                                              8 COMMON     1     1      0
                         _clcd_print
                         _clear_clcd
 ---------------------------------------------------------------------------------
 (1) _set_time                                             4     4      0   12899
                                             12 BANK0      4     4      0
                            ___awdiv
                            ___awmod
                             ___bmul
                         _clcd_print
                         _clcd_putch
                         _clear_clcd
 ---------------------------------------------------------------------------------
 (1) _set_temp                                             4     4      0   12868
                                             12 BANK0      4     4      0
                            ___awdiv
                            ___awmod
                             ___bmul
                         _clcd_print
                         _clcd_putch
                         _clear_clcd
 ---------------------------------------------------------------------------------
 (3) _clear_clcd                                           1     1      0     978
                                              7 COMMON     1     1      0
                         _clcd_write
 ---------------------------------------------------------------------------------
 (2) ___bmul                                               4     3      1     320
                                              3 COMMON     4     3      1
 ---------------------------------------------------------------------------------
 (2) ___awmod                                              7     3      4    1873
                                              8 COMMON     1     1      0
                                              4 BANK0      6     2      4
                            ___awdiv (ARG)
 ---------------------------------------------------------------------------------
 (2) ___awdiv                                              9     5      4    1516
                                              3 COMMON     5     1      4
                                              0 BANK0      4     4      0
 ---------------------------------------------------------------------------------
 (1) _read_matrix_keypad                                   3     3      0     203
                                              5 COMMON     3     3      0
                        _scan_keypad
 ---------------------------------------------------------------------------------
 (2) _scan_keypad                                          2     2      0      92
                                              3 COMMON     2     2      0
 ---------------------------------------------------------------------------------
 (1) _power_on_screen                                      7     7      0    8190
                                             12 BANK0      7     7      0
                         _clcd_print
                         _clcd_putch
 ---------------------------------------------------------------------------------
 (2) _clcd_putch                                           2     1      1    2238
                                             10 BANK0      2     1      1
                            ___awdiv (ARG)
                            ___awmod (ARG)
                         _clcd_write
 ---------------------------------------------------------------------------------
 (1) _init_config                                          0     0      0     978
                          _init_clcd
                 _init_matrix_keypad
                        _init_timer2
 ---------------------------------------------------------------------------------
 (2) _init_timer2                                          0     0      0       0
 ---------------------------------------------------------------------------------
 (2) _init_matrix_keypad                                   0     0      0       0
 ---------------------------------------------------------------------------------
 (2) _init_clcd                                            0     0      0     978
            _init_display_controller
 ---------------------------------------------------------------------------------
 (3) _init_display_controller                              2     2      0     978
                                              7 COMMON     2     2      0
                         _clcd_write
 ---------------------------------------------------------------------------------
 (1) _cooking_mode_display                                 1     1      0    5754
                                              7 COMMON     1     1      0
                         _clcd_print
 ---------------------------------------------------------------------------------
 (3) _clcd_print                                           3     0      3    5754
                                              0 BANK0      3     0      3
                         _clcd_write
 ---------------------------------------------------------------------------------
 (4) _clcd_write                                           4     3      1     978
                                              3 COMMON     4     3      1
 ---------------------------------------------------------------------------------
 Estimated maximum stack depth 4
 ---------------------------------------------------------------------------------
 (Depth) Function   	        Calls       Base Space   Used Autos Params    Refs
 ---------------------------------------------------------------------------------
 (5) _isr                                                  3     3      0       0
                                              0 COMMON     3     3      0
 ---------------------------------------------------------------------------------
 Estimated maximum stack depth 5
 ---------------------------------------------------------------------------------

 Call Graph Graphs:

 _main (ROOT)
   _clcd_print
     _clcd_write
   _clear_clcd
     _clcd_write
   _cooking_mode_display
     _clcd_print
   _init_config
     _init_clcd
       _init_display_controller
         _clcd_write
     _init_matrix_keypad
     _init_timer2
   _power_on_screen
     _clcd_print
     _clcd_putch
       ___awdiv (ARG)
       ___awmod (ARG)
         ___awdiv (ARG)
       _clcd_write (ARG)
   _read_matrix_keypad
     _scan_keypad
   _set_temp
     ___awdiv
     ___awmod
     ___bmul
     _clcd_print
     _clcd_putch
     _clear_clcd
   _set_time
     ___awdiv
     ___awmod
     ___bmul
     _clcd_print
     _clcd_putch
     _clear_clcd
   _time_display_screen
     ___awdiv
     ___awmod
     _clcd_print
     _clcd_putch
     _clear_clcd
     _door_status_check
       _clcd_print
       _clear_clcd

 _isr (ROOT)

 Address spaces:
Name               Size   Autos  Total    Cost      Usage
BANK3               60      0       0       9        0.0%
BITBANK3            60      0       0       8        0.0%
SFR3                 0      0       0       4        0.0%
BITSFR3              0      0       0       4        0.0%
BANK2               60      0       0      11        0.0%
BITBANK2            60      0       0      10        0.0%
SFR2                 0      0       0       5        0.0%
BITSFR2              0      0       0       5        0.0%
BANK1               50      0       0       7        0.0%
BITBANK1            50      0       0       6        0.0%
SFR1                 0      0       0       2        0.0%
BITSFR1              0      0       0       2        0.0%
BANK0               50     17      31       5       61.3%
BITBANK0            50      0       0       4        0.0%
SFR0                 0      0       0       1        0.0%
BITSFR0              0      0       0       1        0.0%
COMMON               E      9       B       1       78.6%
BITCOMMON            E      0       0       0        0.0%
CODE                 0      0       0       0        0.0%
DATA                 0      0      3C      12        0.0%
ABS                  0      0      3C       3        0.0%
NULL                 0      0       0       0        0.0%
STACK                0      0       0       2        0.0%
EEDATA             100      0       0       0        0.0%


Microchip Technology PIC Macro Assembler V2.32 build 20210201212658 
Symbol Table                                                                                   Sun Dec 26 10:19:06 2021

                               pc 0002                    ___bmul@product 0075                    clcd_print@addr 003C  
__size_of_init_display_controller 0063                                l63 0D0E                                l71 0405  
                    ___awdiv@sign 003B                                fsr 0004                _init_matrix_keypad 0CC9  
                             l102 0501                               l103 0506                               l200 0E91  
                             l203 0CBB                               l212 0D66                               l116 05AF  
                             l109 07FD                               l206 0CED                               l150 05DC  
                             l119 07F0                               l240 0720                               l152 05E2  
                             l241 0728                               l153 05EA                               l250 0752  
                             l242 07B3                               l146 01FC                               l235 0CD8  
                             l251 075E                               l243 0734                               l171 033D  
                             l260 0782                               l252 0758                               l244 072E  
                             l180 03D3                               l157 0FFF                               l423 05FF  
                             l265 079E                               l257 0774                               l249 074A  
                             l177 032D                               l266 07A6                               l258 077C  
                             l259 0788                               l268 07AC                               l276 0D33  
                             l197 0D9C                               l293 0CC8                               l550 0EFA  
                             l563 0E2E                               _GIE 005F                               _RB0 0030  
                             _RB1 0031                               _RB2 0032                               _RC1 0039  
                             _RB3 0033                               _RC2 003A                               _RD0 0040  
                             _RD1 0041                               _RD2 0042                               _RE1 0049  
                             _RD3 0043                               _RE2 004A                               _PR2 0092  
                             _min 0034                               _sec 0035                               _isr 0D9D  
                  clcd_putch@addr 0044                               fsr0 0004                    clcd_putch@data 0045  
                             indf 0000                      ___awmod@sign 0043     __size_of_cooking_mode_display 003D  
             ?_init_matrix_keypad 0070                              l2001 0D1F                              l2003 0D24  
                            l2005 0D29                              l2013 0D2B                              l2015 0D30  
                            l2017 0D32                              l2421 0D3E                              l1701 0E37  
                            l2501 0594                              l2423 0D4E                              l1711 0E5D  
                            l1703 0E3E                              l2503 05A1                              l2511 0030  
                            l2431 05B9                              l2425 0D56                              l2505 07B4  
                            l1721 0E8C                              l1713 0E64                              l1705 0E4E  
                            l2441 0DD7                              l2601 01EF                              l2521 0038  
                            l2513 0032                              l2433 05BE                              l2419 0D34  
                            l1715 0E70                              l1707 0E53                              l1723 0CB1  
                            l1731 0CC9                              l1811 077A                              l1803 075C  
                            l2451 0DEB                              l2443 0DDB                              l2611 020A  
                            l2523 003C                              l2515 0034                              l2531 0073  
                            l2507 0026                              l2435 05CD                              l2427 05B0  
                            l1717 0E75                              l1709 0E5A                              l1725 0CB4  
                            l1741 0CD7                              l1733 0CD1                              l1901 0EEC  
                            l2461 0E03                              l2453 0DF1                              l2445 0DE0  
                            l2621 023B                              l2613 020B                              l2541 0099  
                            l2533 007B                              l2525 0049                              l2517 0035  
                            l2509 002C                              l2437 05E5                              l2429 05B6  
                            l2701 0FE0                              l1671 0D75                              l1719 0E85  
                            l1727 0CB5                              l1735 0CD2                              l1743 0CBC  
                            l1751 0CDC                              l1831 07A4                              l1823 0786  
                            l1807 0762                              l1903 0EF1                              l2471 0E25  
                            l2463 0E0D                              l2455 0DF4                              l2447 0DE2  
                            l2439 0DD4                              l2631 0263                              l2615 0213  
                            l2623 024A                              l2607 0200                              l2551 00DE  
                            l2543 00AB                              l2535 0081                              l2527 0058  
                            l2519 0036                              l2711 0FF6                              l2703 0FE3  
                            l1681 0D8B                              l1673 0D76                              l1729 0CB6  
                            l1737 0CD5                              l1745 0CC0                              l1817 0780  
                            l1809 0766                              l1905 0EF6                              l2473 0E2A  
                            l2465 0E13                              l2457 0DFB                              l2449 0DE6  
                            l2641 0293                              l2633 0270                              l2625 0252  
                            l2617 0220                              l2609 0206                              l2561 010C  
                            l2545 00AE                              l2537 0086                              l2553 00E2  
                            l2529 0064                              l2713 0FFB                              l2705 0FE4  
                            l2801 04CB                              l2721 03E3                              l1683 0D90  
                            l1675 0D7B                              l1667 0D68                              l1739 0CD6  
                            l1747 0CC4                              l2491 057B                              l2483 053B  
                            l1843 07B0                              l1827 078C                              l1771 0726  
                            l2467 0E1A                              l2459 0DFF                              l1851 05EC  
                            l2651 02BE                              l2643 0298                              l2627 0258  
                            l2635 0283                              l2619 022C                              l2571 012F  
                            l2563 011B                              l2555 00EA                              l2547 00BD  
                            l2539 008C                              l2707 0FE5                              l2803 04D2  
                            l2731 0406                              l2723 03E7                              l2715 03D4  
                            l1685 0D93                              l1677 0D7E                              l1669 0D72  
                            l1749 0CC5                              l2485 0548                              l2477 0537  
                            l1837 07AA                              l1829 0790                              l1765 0708  
                            l2469 0E20                              l1861 05FE                              l1853 05ED  
                            l2661 0393                              l2653 0326                              l2645 02A7  
                            l2637 0289                              l2629 025D                              l2581 0146  
                            l2573 0135                              l2565 011E                              l2557 00F7  
                            l2549 00CC                              l2709 0FF3                              l2813 04EE  
                            l2805 04D9                              l2741 042D                              l2733 040B  
                            l2725 03F2                              l2717 03D9                              l1679 0D8A  
                            l1951 0CFE                              l2487 0550                              l1847 07B2  
                            l1791 0750                              l1783 0732                              l1767 070E  
                            l1871 0E9E                              l1855 05F1                              l1687 07F1  
                            l2671 03BE                              l2663 0394                              l2655 032E  
                            l2647 02B6                              l2639 028D                              l2583 0154  
                            l2591 01CA                              l2575 0136                              l2559 00FD  
                            l2567 0122                              l2815 04F4                              l2807 04DF  
                            l2743 043B                              l2735 0411                              l2727 03F8  
                            l2823 0509                              l2719 03DE                              l1961 0D0B  
                            l1953 0CFF                              l2497 057F                              l2489 055D  
                            l1777 072C                              l1769 0712                              l1881 0EAF  
                            l1873 0EA0                              l1865 0E92                              l1857 05F5  
                            l1689 07F8                              l2673 03C6                              l2665 03A1  
                            l2657 0333                              l2649 02BC                              l2585 016F  
                            l2569 012A                              l2577 0137                              l2681 0F4B  
                            l2817 04FB                              l2809 04E5                              l2825 052D  
                            l2761 046F                              l2753 0456                              l2737 0419  
                            l2745 0441                              l2729 03FE                              l1699 0E2F  
                            l1955 0D02                              l1947 0CEE                              l2499 058C  
                            l1787 0738                              l1891 0EC7                              l1883 0EB5  
                            l1875 0EA4                              l1867 0E95                              l1859 05F7  
                            l2667 03A3                              l2659 0339                              l2595 01D3  
                            l2587 018E                              l2579 0144                              l2691 0FB1  
                            l2683 0F57                              l2675 0EFB                              l2771 047B  
                            l2763 0474                              l2755 045C                              l2747 0447  
                            l2739 041E                              l1957 0D05                              l1949 0CFD  
                            l1797 0756                              l1789 073C                              l1893 0ED8  
                            l1885 0EB8                              l1877 0EA9                              l1869 0E99  
                            l2669 03B1                              l2597 01E1                              l2589 01AB  
                            l2693 0FC0                              l2685 0F74                              l2677 0F0F  
                            l2781 0498                              l2773 0480                              l2765 0475  
                            l2749 044D                              l1959 0D08                              l1991 0D10  
                            l1895 0EDE                              l1887 0EBF                              l1879 0EAD  
                            l2695 0FC7                              l2687 0F93                              l2679 0F2C  
                            l2791 04B5                              l2783 04A2                              l2767 0479  
                            l2775 0487                              l2759 0469                              l1993 0D18  
                            l1897 0EDF                              l1889 0EC3                              l2697 0FCC  
                            l2689 0FA2                              l2793 04BA                              l2785 04A8  
                            l2777 048D                              l2769 047A                              l1995 0D1D  
                            l1899 0EE6                              l2699 0FD1                              l2883 0513  
                            l2795 04C0                              l2787 04AA                              l2779 0492  
                            l2885 01F4                              l2789 04AF                              l2799 04C5  
                            ?_isr 0070                              STR_1 0695                              STR_2 0612  
                            STR_3 0634                              STR_4 06E9                              STR_5 06E1  
                            STR_6 06A3                              STR_7 06F9                              STR_8 0600  
                            STR_9 0701                              u1100 0726                              u1101 0725  
                            u1030 0D6F                              u1110 072C                              u1031 0D6B  
                            u1111 072B                              u1200 0786                              u1120 0732  
                            u1201 0785                              u1121 0731                              u1210 079E  
                            u1130 074A                              u1211 079D                              u1131 0749  
                            u1044 0D72                              u1220 07A4                              u1140 0750  
                            u2100 0DF1                              u1221 07A3                              u1141 074F  
                            u2101 0DF0                              u1230 07AA                              u1150 0756  
                            u1310 0EC7                              u1055 0D82                              u1231 07A9  
                            u1151 0755                              u1311 0EC6                              u1240 07B0  
                            u1160 075C                              u2120 0E03                              u2200 007B  
                            u1241 07AF                              u1161 075B                              u1305 0EB9  
                            u2121 0E02                              u2201 007A                              u2050 0D66  
                            u1170 0774                              u1090 0720                              u1330 0ED8  
                            u2130 0E0D                              u1250 05F1                              u2210 0081  
                            u2051 0D65                              u1171 0773                              u1091 071F  
                            u1331 0ED7                              u2131 0E0C                              u2115 0DF5  
                            u1251 05F0                              u2211 0080                              u1180 077A  
                            u1500 0D29                              u1260 05FE                              u2300 012A  
                            u2220 0086                              u2060 05B6                              u1181 0779  
                            u1501 0D28                              u1325 0EC8                              u1261 05FD  
                            u2301 0129                              u2221 0085                              u2061 05B5  
                            u1190 0780                              u1510 0D30                              u1350 0EEC  
                            u1270 0E99                              u2150 0E20                              u2310 0144  
                            u2230 0099                              u2070 05E2                              u1191 077F  
                            u1511 0D2F                              u1351 0EEB                              u1335 0ED4  
                            u1271 0E98                              u2151 0E1F                              u2135 0E09  
                            u2311 0143                              u2231 0098                              u2071 05E1  
                            u1360 0EF1                              u1280 0EA4                              u2160 0E25  
                            u2080 0DDB                              u2400 0289                              u2320 014D  
                            u2240 00BD                              u1361 0EF0                              u1345 0EE0  
                            u1281 0EA3                              u2161 0E24                              u2145 0E14  
                            u2081 0DDA                              u2401 0288                              u2321 014B  
                            u2241 00BC                              u2170 055D                              u1290 0EB5  
                            u2090 0DE6                              u2410 0293                              u2330 014E  
                            u2250 00CC                              u2171 055C                              u1291 0EB4  
                            u2091 0DE5                              u2411 0292                              u2251 00CB  
                            u2235 0095                              u2180 05A1                              u2420 032D  
                            u2340 01D2                              u2260 00EA                              u2500 03FE  
                            u2181 05A0                              u2421 032C                              u2341 01D1  
                            u2261 00E9                              u2245 00B9                              u2501 03FD  
                            u2430 03A1                              u2350 0206                              u2270 00F7  
                            u2190 002C                              u2510 0404                              u2175 0559  
                            u2431 03A0                              u2351 0205                              u2271 00F6  
                            u2255 00C8                              u2191 002B                              u2511 0403  
                            u1480 0D1D                              u2440 03AA                              u2360 0252  
                            u2280 010C                              u2600 0498                              u2520 040B  
                            u2185 059D                              u1481 0D1C                              u2441 03A8  
                            u2361 0251                              u2281 010B                              u2601 0497  
                            u2521 040A                              u1490 0D24                              u2450 03AB  
                            u2370 0258                              u2290 011B                              u2610 04A8  
                            u2530 0411                              u1491 0D23                              u2371 0257  
                            u2291 011A                              u2275 00F3                              u2611 04A7  
                            u2531 0410                              u2460 03C6                              u2380 025D  
                            u2620 04B5                              u2540 0447                              u2461 03C5  
                            u2381 025C                              u2285 0108                              u2621 04B4  
                            u2541 0446                              u2390 0270                              u2470 0FC7  
                            u2630 04C0                              u2550 044D                              u2391 026F  
                            u2295 0117                              u2471 0FC6                              u2631 04BF  
                            u2551 044C                              u2480 0FCC                              u2640 04DF  
                            u2560 045C                              u2481 0FCB                              u2641 04DE  
                            u2561 045B                              u2650 04ED                              u2570 046F  
                            u2490 03F8                              u2707 05A9                              u2395 026C  
                            u2651 04EC                              u2571 046E                              u2491 03F7  
                            u2660 04F4                              u2580 0474                              u2717 0E33  
                            u2661 04F3                              u2581 0473                              u2590 048D  
                            u2807 0D97                              u2727 0E42                              u2591 048C  
                            u2737 0E50                              u2747 0E66                              _PEIE 005E  
                            u2757 0E72                              u2677 0435                              u2767 0E80  
                            u2687 0FED                              u2777 0E8E                              u2697 07FA  
                            u2787 0D78                              u2797 0D8D                              _flag 0079  
                            _main 03D4                              _temp 0033                              btemp 007E  
                            start 000C                 ___bmul@multiplier 0076              ??_init_matrix_keypad 0073  
                  clcd_write@byte 0076                    clcd_write@mode 0073        __size_of_door_status_check 003B  
         __end_of_power_on_screen 05B0                    _convec_mode_op 0030      __size_of_time_display_screen 0105  
                           ??_isr 0070                             ?_main 0070                   __end_of___awdiv 0EFB  
                           STR_10 0656                             STR_11 0620                             STR_12 0620  
                           STR_20 0686                             STR_21 06D9                             STR_13 0645  
                           STR_22 0656                             STR_14 0677                             STR_15 06BC  
                           STR_23 0623                             STR_24 06B0                             STR_16 0667  
                           STR_25 061F                             STR_17 06D0                             STR_18 06F1  
                           STR_19 06C6                   __end_of___awmod 0E2F                   ___awdiv@divisor 0073  
                           i1l311 0DCD                      ?_init_config 0070                   ___awdiv@counter 003A  
                           _PORTD 0008                             _TRISB 0086                             _TRISD 0088  
                    ?_init_timer2 0070                             _nRBPU 040F                _read_matrix_keypad 0D0F  
                           pclath 000A               ?_read_matrix_keypad 0070                             status 0003  
                           wtemp0 007E                      ?_scan_keypad 0070                   __initialization 000F  
                    __end_of_main 0537              ??_read_matrix_keypad 0075                            ??_main 004D  
                ___awdiv@dividend 0075                            u200_20 0DA3                            u200_21 0DA2  
                          i1l2351 0DA3                            u201_20 0DB2                            i1l2361 0DC1  
                          i1l2353 0DB2                            u201_21 0DB1                            i1l2363 0DC6  
                          i1l2355 0DB4                            i1l2365 0DC8                            i1l2357 0DB9  
                          i1l2349 0D9D                            i1l2359 0DBC                            i1l2367 0DCC  
                          u202_20 0DB9                            u202_21 0DB8                            u203_20 0DC1  
                          u203_21 0DC0                            u204_20 0DC6                            u204_21 0DC5  
                          _TMR2IE 0461                            _TMR2IF 0061                            _TMR2ON 0092  
                          _TRISC1 0439                            _TRISB3 0433                            _TRISC2 043A  
                          _TRISE1 0449                            _TRISE2 044A                            ___bmul 05EB  
         _init_display_controller 0E2F                         ??___awdiv 0077                  ?_power_on_screen 0070  
                       ??___awmod 0078                  ___awdiv@quotient 003C                   ___awmod@divisor 003E  
                 ___awmod@counter 0042                      __pdataCOMMON 007A                  __end_of_set_temp 03D4  
                __end_of_set_time 01FD                            saved_w 007E           __end_of__initialization 001F  
             ___bmul@multiplicand 0073                    __pcstackCOMMON 0070              __size_of_init_config 0021  
            __size_of_init_timer2 000D               _time_display_screen 0EFB                        __pbssBANK0 0020  
              __size_of_init_clcd 000B      __end_of_cooking_mode_display 07F1         ??_init_display_controller 0077  
                      _clcd_print 0D34                        _clcd_putch 0CD9                        _clcd_write 0D67  
                      _clear_clcd 07F1              __size_of_scan_keypad 00AC                        __pmaintext 03D4  
                         ?___bmul 0073              ?_time_display_screen 0070                        __pintentry 0004  
                         _T2CKPS0 0090                           _T2CKPS1 0091                        __stringtab 0800  
                set_temp@temp_arr 0036                         ?_set_temp 0070                         ?_set_time 0070  
     __size_of_init_matrix_keypad 0010             ??_time_display_screen 0046                   __size_of___bmul 0015  
                         ___awdiv 0E92                           ___awmod 0DD4                           __ptext1 0EFB  
                         __ptext2 05B0                           __ptext3 0023                           __ptext4 01FD  
                         __ptext5 07F1                           __ptext6 05EB                           __ptext7 0DD4  
                         __ptext8 0E92                           __ptext9 0D0F   __end_of_init_display_controller 0E92  
               __end_of_init_clcd 0CBC                      __size_of_isr 0037                  ___awmod@dividend 0040  
                         main@key 0050                           clrloop0 0CAA              end_of_initialization 001F  
                     set_temp@key 0049                       set_time@key 0049                    _operation_mode 0032  
                     ?_clcd_print 003A                       ?_clcd_putch 0044                       ?_clcd_write 0073  
                      _reset_flag 0031                       ?_clear_clcd 0070                        ??_set_temp 0046  
                      ??_set_time 0046                      __pstringtext 0600       __size_of_read_matrix_keypad 0025  
            _cooking_mode_display 07B4                     clcd_print@str 003A                    __end_of___bmul 0600  
                   __pidataCOMMON 07FE             ?_cooking_mode_display 0070          __size_of_power_on_screen 0079  
             start_initialization 000F               __size_of_clcd_print 0033                      scan_keypad@i 0073  
             __size_of_clcd_putch 0015               __size_of_clcd_write 0036            read_matrix_keypad@mode 0076  
          read_matrix_keypad@once 007A               __size_of_clear_clcd 000D                       __end_of_isr 0DD4  
                        ??___bmul 0074                     ??_init_config 0079                     ??_init_timer2 0073  
                     __pbssCOMMON 0079                         ___latbits 0002                     __pcstackBANK0 003A  
                   ??_scan_keypad 0073              power_on_screen@i_119 004B                          ?___awdiv 0073  
                        ?___awmod 003E                 __size_of_set_temp 01D7                 __size_of_set_time 01DA  
                       __pstrings 0800            ??_cooking_mode_display 0077                         _init_clcd 0CB1  
             __end_of_init_config 0D0F                 ??_power_on_screen 0046               __end_of_init_timer2 0CC9  
        ?_init_display_controller 0070                 interrupt_function 0004       __end_of_time_display_screen 1000  
                       clear_ram0 0CA9                      ??_clcd_print 0077                      ??_clcd_putch 0079  
      __end_of_init_matrix_keypad 0CD9                      ??_clcd_write 0074                      ??_clear_clcd 0077  
               set_temp@key_count 0022               __end_of_scan_keypad 07B4                       __stringbase 0812  
              __end_of_clcd_print 0D67                __end_of_clcd_putch 0CEE                __end_of_clcd_write 0D9D  
                      ?_init_clcd 0070                __end_of_clear_clcd 07FE             read_matrix_keypad@key 0077  
               set_time@blink_pos 0028                     set_temp@blink 0024                     set_time@blink 002C  
      __end_of_read_matrix_keypad 0D34                  __size_of___awdiv 0069                  __size_of___awmod 005B  
              __end_of__stringtab 0812                 set_time@key_count 002A                       _init_config 0CEE  
                     _init_timer2 0CBC                          __ptext10 0708                          __ptext11 0537  
                        __ptext20 0D67                          __ptext12 0CD9                          __ptext21 0D9D  
                        __ptext13 0CEE                          __ptext14 0CBC                          __ptext15 0CC9  
                        __ptext16 0CB1                          __ptext17 0E2F                          __ptext18 07B4  
                        __ptext19 0D34                     __size_of_main 0163                       _scan_keypad 0708  
                        _set_temp 01FD                          _set_time 0023                 _door_status_check 05B0  
              ?_door_status_check 0070                          isr@count 0020                      set_temp@wait 0026  
                    set_time@wait 002E               ??_door_status_check 0078                       ??_init_clcd 0079  
                        intlevel1 0000                         stringcode 080A         __end_of_door_status_check 05EB  
                 _power_on_screen 0537                          stringtab 0800                  power_on_screen@i 0049  
